800 series MICOM ASSEMBLER Sat Aug 26 15:47:19 2017
(PAGE 1)

1                ;;==================================================================================================
2                ;;
3                ;;	include	head files
4                ;;
5                ;;==================================================================================================
6                         ORG     0000H        
7                
8                         include  MC81F4416.h   
9                ;;==================================================================================================
10               ;;
11               ;;	Peripheral Register
12               ;;
13               ;;==================================================================================================
14               P0CONH   EQU     0C6H         
15               P0CONM   EQU     0C7H         
16               P0CONL   EQU     0C8H         
17               P0PU     EQU     0C9H         
18               P0       EQU     0C0H         
19               P1CONH   EQU     0D3H         
20               P1CONM   EQU     0D4H         
21               P1CONL   EQU     0D5H         
22               P1PU     EQU     0D6H         
23               P1       EQU     0C1H         
24               P2CONH   EQU     0D9H         
25               P2CONL   EQU     0DAH         
26               P2PU     EQU     0DBH         
27               P2       EQU     0C2H         
28               P3CONH   EQU     0DCH         
29               P3CONL   EQU     0DDH         
30               P3       EQU     0C3H         
31               P4CONH   EQU     0DEH         
32               P4CONL   EQU     0DFH         
33               P4       EQU     0C4H         
34               P5CON    EQU     0E0H         
35               P5       EQU     0C5H         
36               
37               IENH     EQU     0EAH         
38               IENL     EQU     0EBH         
39               IRQH     EQU     0ECH         
40               T0MIR    EQU     7,IRQH       
41               T1MIR    EQU     5,IRQH       
42               T2MIR    EQU     3,IRQH       
43               T3MIR    EQU     1,IRQH       
44               IRQL     EQU     0EDH         
45               WTIR     EQU     5,IRQL       
46               INTFH    EQU     0EEH         
47               T0MIF    EQU     7,INTFH      
48               T1MIF    EQU     5,INTFH      
49               T2MIF    EQU     3,INTFH      
50               T3MIF    EQU     1,INTFH      
51               INTFL    EQU     0EFH         
52               
53               EINT0H   EQU     0CAH         
54               EINT0L   EQU     0CBH         
55               EINT1    EQU     0D7H         
56               ERQ0     EQU     0CCH         
57               ERQ1     EQU     0D8H         
58               EINTFH   EQU     0CDH         
59               
60               OSCSEL   EQU     0BCH         
61               SSCR     EQU     0F5H         
62               
63               CKCTLR   EQU     0F2H         
64               BTCR     EQU     0F1H         
65               
66               WDTR     EQU     0F4H         
67               WDTSR    EQU     0F6H         
68               
69               WTSCR    EQU     0F0H         
70               
71               T0SCR    EQU     0B0H         
72               T0DR     EQU     0B1H         
73               
74               T1SCR    EQU     0B3H         
75               T1DR     EQU     0B4H         
76               
77               T2SCR    EQU     0B6H         
78               T2DR     EQU     0B7H         
79               PWMSCR   EQU     0CEH         
80               PWMPDR   EQU     0CFH         
81               PWM2DR   EQU     0D0H         
82               PWM3DR   EQU     0D1H         
83               PWM4DR   EQU     0D2H         
84               
85               BUZR     EQU     0E5H         
86               BUPDR    EQU     0E6H         
87               
88               SIOCR    EQU     0E7H         
89               SIODAT   EQU     0E8H         
90               SIOPS    EQU     0E9H         
91               
92               T3SCR    EQU     0B9H         
93               T3DR     EQU     0BAH         
94               
95               ADCM     EQU     0BDH         
96               ADCRH    EQU     0BEH         
97               ADCRL    EQU     0BFH         
98               
99               UCONH    EQU     0FCH         
100               UCONL    EQU     0FDH         
101               RXBR0    EQU     0FEH         
102               TXSR0    EQU     0FEH         
103               BRDAT    EQU     0FFH         
104               TX0IF    EQU     3,IRQL       
105               RX0IF    EQU     4,IRQL       
106               
107               IICSCR   EQU     0E2H         
108               IICDSR   EQU     0E4H         
109               IICAR    EQU     0E3H         
110               
111               
112               RPR      EQU     0E1H         
113               PORC     EQU     0F3H         
114               
115               ;;==================================================================================================
116               ;;	End	of HMS81F8816.h
117               ;
118               ;
119               ;;
120               ;;
121                        include  main.h       
122               dpint    ds      2            ;用于中断
123               dpmain   ds      2            ;用于主程序
124               
125               ;;===================================================================
126               ;;
127               ;;for ram0
128               ;;
129               ;;===================================================================
130               R0       ds      1            
131               R1       ds      1            
132               R2       ds      1            
133               R3       ds      1            
134               R4       ds      1            
135               R5       ds      1            
136               R6       ds      1            
137               R7       ds      1            
138               
139               R_Flag   ds      1            
140               B_64Hz   EQU     0            
141               B_128Hz  EQU     1            
142               B_256Hz  EQU     2            
143               B_8192Hz EQU     3            
144               B_2HzKey EQU     4            
145               B_RCAMode EQU     7            ;位置不能变
146               
147               R_Flag1  ds      1            
148               B_4KHz   EQU     0            
149               B_MuteFlag EQU     1            
150               B_AudioIn EQU     6            
151               B_ERPFlag EQU     7            
152               
153               R_MainMode ds      1            
154               C_NormalMode EQU     0            
155               C_BTMode EQU     1            
156               C_AuxMode EQU     2            
157               C_OpticalMode EQU     3            
158               R_ModeTemp ds      1            
159               R_SetTimeFlag ds      1            
160               C_NonSet EQU     0            
161               C_SetVolume EQU     1            
162               C_SetBass EQU     2            
163               C_SetTreble EQU     3            
164               
165               ;;========================================================================================
166               R_HalfSecond ds      1            
167               
168               R_Volume ds      1            
169               R_VolumeTemp ds      1            
170               R_VolumeTime ds      1            
171               R_VolumeRamUpTime ds      1            
172               R_Bass   ds      1            
173               R_BassTime ds      1            
174               R_Treble ds      1            
175               R_TrebleTime ds      1            
176               
177               R_BackNormalTimeLo ds      1            
178               R_BackNormalTimeHi ds      1            
179               
180               R_KeyminderBufferCol0 ds      1            
181               R_KeyminderBufferCol1 ds      1            
182               R_KeyminderBufferCol2 ds      1            
183               R_KeyminderBufferCol3 ds      1            
184               R_KeyBuffer ds      1            
185               R_KeyFlag ds      1            
186               B_KeyAction EQU     0            
187               B_IRKeyScan EQU     1            
188               R_KeyTime ds      1            
189               
190               R_AuxSleepBaseTime ds      1            
191               R_AuxSleepSecond ds      1            
192               R_AuxSleepMinute ds      1            
193               R_AuxSleepCounter ds      1            
194               R_AuxSleepCounterTime ds      1            
195               
196               R_OpticalSleepBaseTime ds      1            
197               R_OpticalSleepSecond ds      1            
198               R_OpticalSleepMinute ds      1            
199               R_OpticalSleepCounter ds      1            
200               R_OpticalSleepCounterTime ds      1            
201               
202               R_BTSleepBaseTime ds      1            
203               R_BTSleepSecond ds      1            
204               R_BTSleepMinute ds      1            
205               R_BTSleepCounter ds      1            
206               R_BTSleepCounterTime ds      1            
207               
208               ;;=================================================================
209               ;;
210               ;;for ir variable
211               ;;
212               ;;=================================================================
213               R_IRKeyTemp ds      1            
214               R_IRKeyBuffer ds      1            
215               
216               R_IRMode ds      1            
217               C_IRMode0 EQU     0            
218               C_IRMode1 EQU     1            
219               R_IRFlag ds      1            
220               B_IRBitLow EQU     0            
221               R_IRKeyStore ds      1            
222               R_IRIntervalLo ds      1            
223               R_IRIntervalHi ds      1            
224               R_IRIIRTime ds      1            
225               R_IRBitTime ds      1            
226               R_IRBitLowTime ds      1            
227               R_IRBitCounter ds      1            
228               R_IRBit0 ds      1            
229               R_IRBit1 ds      1            
230               R_IRBit2 ds      1            
231               R_IRBit3 ds      1            
232               R_IRCheckSum ds      1            
233               
234               R_BTLedTime ds      1            
235               
236               R_ERPIITime ds      1            
237               R_ERPIICount ds      1            
238               ;;=======================================================================
239               ;;
240               ;;for coder variable
241               ;;
242               ;;=======================================================================
243               R_CoderFlag ds      1            ;for time
244               B_CoderLFlag EQU     0            
245               B_CoderRFlag EQU     1            
246               B_WaitCoderH EQU     2            
247               
248               R_CoderTurnL ds      1            
249               R_CoderTurnR ds      1            
250               
251               R_CoderFlag1 ds      1            ;for volume
252               B_CoderLFlag1 EQU     0            
253               B_CoderRFlag1 EQU     1            
254               B_WaitCoderH1 EQU     2            
255               
256               R_CoderTurnL1 ds      1            
257               R_CoderTurnR1 ds      1            
258               
259               R_CoderFlag2 ds      1            ;for bass
260               B_CoderLFlag2 EQU     0            
261               B_CoderRFlag2 EQU     1            
262               B_WaitCoderH2 EQU     2            
263               
264               R_CoderTurnL2 ds      1            
265               R_CoderTurnR2 ds      1            
266               
267               R_CoderFlag3 ds      1            ;for treble
268               B_CoderLFlag3 EQU     0            
269               B_CoderRFlag3 EQU     1            
270               B_WaitCoderH3 EQU     2            
271               
272               R_CoderTurnL3 ds      1            
273               R_CoderTurnR3 ds      1            
274               ;
275               ;
276               ;;
277               ;;
278                        include  io.h         
279               R_StandbyCtrl EQU     P2           
280               B_StandbyCtrl EQU     7            
281               R_MuteCtrl EQU     P3           
282               B_MuteCtrl EQU     0            
283               
284               R_TAS5713Power EQU     P5           
285               B_TAS5713Power EQU     1            
286               R_TAS5713Reset EQU     P5           
287               B_TAS5713Reset EQU     1            
288               
289               R_IRPin  EQU     P1           
290               B_IRPin  EQU     1            
291               
292               R_AudioDetPin EQU     P1           
293               B_AudioDetPin EQU     2            
294               
295               R_BTPowerCtrl EQU     P0           
296               B_BTPowerCtrl EQU     3            
297               
298               R_BTLedCtrl EQU     P1           
299               B_BTLedCtrl EQU     5            
300               R_AuxLedCtrl EQU     P1           
301               B_AuxLedCtrl EQU     4            
302               R_OpticalLedCtrl EQU     P1           
303               B_OpticalLedCtrl EQU     0            
304               
305               R_BTSleepDetect EQU     P0           
306               B_BTSleepDetect EQU     0            
307               C_AuxSleepChannelL EQU     02           
308               C_AuxSleepChannelR EQU     02           
309               C_OpticalSleepChannelL EQU     02           
310               C_OpticalSleepChannelR EQU     02           
311               
312               C_ADC_KeyChannel EQU     000          
313               C_ADC_Key1Channel EQU     003          
314               R_KeyIO0 EQU     P5           
315               B_KeyIO0 EQU     2            
316               ;;=======================================================================
317               ;;
318               ;;
319               ;;
320               ;;=======================================================================
321               R_24C02SCL EQU     P2           
322               B_24C02SCL EQU     5            
323               R_24C02SDAO EQU     P2           
324               B_24C02SDAO EQU     6            
325               R_24C02SDAI EQU     P2           
326               B_24C02SDAI EQU     6            
327               R_24C02DAI_O EQU     P2CONH       
328               C_24C02DAIOMask EQU     11001111B    
329               C_24C02DAIOInput EQU     00000000B    
330               C_24C02DAIOOutput EQU     00010000B    
331               
332               ;;=======================================================================
333               ;;
334               ;;for amplify IO
335               ;;
336               ;;=======================================================================	
337               R_D2AudioCK EQU     P2           
338               B_D2AudioCK EQU     5            
339               R_D2AudioDAO EQU     P2           
340               B_D2AudioDAO EQU     6            
341               R_D2AudioDAI EQU     P2           
342               B_D2AudioDAI EQU     6            
343               R_D2AudioDAIO EQU     P2CONH       
344               C_D2AudioDAIOMask EQU     11001111B    
345               C_D2AudioDAIOInput EQU     00000000B    
346               C_D2AudioDAIOOutput EQU     00010000B    
347               
348               R_TC4052A EQU     P1           
349               B_TC4052A EQU     6            
350               R_TC4052B EQU     P1           
351               B_TC4052B EQU     7            
352               R_MixCtrl EQU     P0           
353               B_MixCtrl EQU     4            
354               ;;=======================================================================
355               ;;
356               ;;for volume coder IO
357               ;;
358               ;;=======================================================================			
359               R_CoderLPin1 EQU     P5           ;for volume
360               B_CoderLPin1 EQU     2            
361               R_CoderRPin1 EQU     P5           
362               B_CoderRPin1 EQU     2            
363               
364               R_CoderLPin2 EQU     P5           ;for bass
365               B_CoderLPin2 EQU     2            
366               R_CoderRPin2 EQU     P5           
367               B_CoderRPin2 EQU     2            
368               
369               R_CoderLPin3 EQU     P5           ;for treble
370               B_CoderLPin3 EQU     2            
371               R_CoderRPin3 EQU     P5           
372               B_CoderRPin3 EQU     2            
373               
374               ;;=======================================================================
375               ;;
376               ;;for set coder IO
377               ;;
378               ;;=======================================================================	
379               ;R_CoderLPin		EQU	P5																			;for set
380               ;B_CoderLPin		EQU	2		
381               ;R_CoderRPin		EQU	P5			
382               ;B_CoderRPin		EQU	2
383               ;
384               ;
385               ;;
386               ;;
387                        include  at24c02.h    
388               EEPROM   EQU     0            ;定义是否使用EEPROM
389               
390               ;;========================================================================
391               ;;
392               ;;Describe:	初始值定义
393               ;;
394               ;;========================================================================
395               C_InitialMode EQU     C_OpticalMode   
396               C_InitialVolume EQU     30H          
397               C_InitialBass EQU     5            
398               C_InitialTreble EQU     5            
399               
400               ;;========================================================================
401               ;;
402               ;;Describe:	最大值定义
403               ;;
404               ;;========================================================================
405               C_MaxMode EQU     C_OpticalMode   
406               C_MaxVolume EQU     30H          
407               C_MaxBass EQU     10           
408               C_MaxTreble EQU     10           
409               
410               ;;========================================================================
411               ;;
412               ;;Describe:	最小值定义
413               ;;
414               ;;========================================================================
415               C_MinMode EQU     C_OpticalMode   
416               C_MinVolume EQU     00H          
417               C_MinBass EQU     00           
418               C_MinTreble EQU     00           
419               
420               ;;========================================================================
421               ;;
422               ;;Dscribe:	EEPROM地址分配
423               ;;
424               ;;========================================================================
425               R_ModeTemp_F EQU     01           
426               R_VolumeTemp_F EQU     02           
427               R_Bass_F EQU     03           
428               R_Treble_F EQU     04           
429               R_Flag_F EQU     05           
430               ;
431               ;
432               ;;
433               ;;
434                        include  volume.h     
435               VolumeRamUp EQU     0            
436               BassFunction EQU     0            
437               TrebleFunction EQU     0            
438               
439               ;;=======================================================================
440               C_VolumeRamUpTime EQU     5            
441               ;
442               ;
443               ;;
444               ;;
445                        include  power.h      
446               AuxSleep EQU     1            
447               OpticalSleep EQU     1            
448               BTSleep  EQU     0            
449               
450               ;;===========================================================================
451               C_AuxSleepTime EQU     2            ;分钟
452               C_OpticalSleepTime EQU     2            ;分钟
453               C_BTSleepTime EQU     60           ;分钟
454               C_MuteTime EQU     100          ;sec
455               
456               C_AuxSleepADC EQU     5            ;不大于4095
457               C_OpticalSleepADC EQU     5            ;不大于4095
458               BTHighLevelDetect EQU     1            ;1:表示无连接为高电平
459               ;
460               ;
461               ;;
462               ;;
463                        include  ir.h         
464               IRFunction EQU     1            
465               ContinueIRSyc EQU     0            ;按下连续发同步码
466               
467               ;;===========================================================================
468               C_IRCustomerCode1 EQU     002H         ;后发送
469               C_IRCustomerCode0 EQU     0BDH         ;先发送
470               
471               C_MaxIRCode EQU     060H         ;最大不超过07EH
472               ;
473               ;
474               ;;
475               ;;
476               
477               ;;==================================================================================================
478               ;;
479               ;;	Power	On Initial
480               ;;
481               ;;==================================================================================================
482               
483                        ORG     0C000H       
484               
485               Program_Start:                
486 C000 60                di                   ;disable all interrupt
487 C001 1EFF              ldx     #0FFh        ;stack	point	initialize
488 C003 8E                txsp                 
489               
490 C004 E41EF2            ldm     CKCTLR,#00011110B   ;Basic Interval Timer Off,	bit4=0:disable watchdog
491 C007 3B03C2            call    !WDTC        
492               
493 C00A 40                clrg                 
494 C00B 1E00              ldx     #00          
495 C00D C400              lda     #00          
496               L_ClearRamPage0_Loop:         
497 C00F FB                sta     {x}+         ;page0	(000h~08Fh)	clear
498 C010 5EB0              cmpx    #0B0H        
499 C012 70FB              bne     L_ClearRamPage0_Loop   
500 C014 E401E1            ldm     RPR,#0000_0001B   ;Page	1	00~FF
501 C017 C0                setg                 
502 C018 1E00              ldx     #00          
503 C01A C400              lda     #00          
504               L_ClearRamPage1_Loop:         
505 C01C FB                sta     {x}+         ;	page1	(000h~0fFh)	clear
506 C01D 5E00              cmpx    #00          
507 C01F 70FB              bne     L_ClearRamPage1_Loop   
508 C021 40                clrg                 
509 C022 E402E1            ldm     RPR,#0000_0010b   ;Page	2	00~6F
510 C025 C0                setg                 
511 C026 1E00              ldx     #00          
512 C028 C400              lda     #00          
513               L_ClearRamPage2_Loop:         
514 C02A FB                sta     {x}+         ;	page2	(000h~06Fh)	clear
515 C02B 5E50              cmpx    #050h        
516 C02D 70FB              bne     L_ClearRamPage2_Loop   
517 C02F 40                clrg                 
518 C030 E400E1            ldm     RPR,#0000_0000b   ;lcd ram
519               
520               L_Main:                       
521 C033 3BCEC0            call    F_InitialMC81F4416   
522 C036 3BADC1            call    F_InitialSystem   
523               
524               Main_Loop:                    
525 C039 3B03C2            call    WDTC         
526 C03C 330CFA            bbc     R_Flag.B_128Hz,main_loop   
527 C03F 310C              clr1    R_Flag.B_128Hz   
528 C041 4B0C00            not1    R_Flag.B_64Hz   
529 C044 130C2D            bbc     R_Flag.B_64Hz,main_iPod_loop   
530               
531 C047 3BABC8            call    F_CheckBackNormalTime   
532               
533 C04A 3B89C8            call    F_CheckTime   
534               
535 C04D 3BD2CB            call    F_CheckVolume   
536 C050 3BECCC            call    F_CheckBass   
537 C053 3BEDCC            call    F_CheckTreble   
538 C056 3BF8CC            call    F_VolumeRamUp   
539               
540 C059 3B9ED0            call    F_DisplayLcd   
541               
542 C05C 3BE0C9            call    F_CheckERP   
543 C05F 3BDCC8            call    F_CheckAuxSleep   
544 C062 3B48C9            call    F_CheckOpticalSleep   
545 C065 3BB4C9            call    F_CheckBTSleep   
546               
547 C068 3B57C6            call    F_KeyBoardScan   
548 C06B 3B90C3            call    F_KeyDecoder   
549 C06E 3BE8D0            call    F_PowerOnOptical   
550 C071 1B39C0            jmp     Main_Loop    
551               
552               main_iPod_loop:               
553 C074 3BE0C9            call    F_CheckERP   
554 C077 3BDCC8            call    F_CheckAuxSleep   
555 C07A 3B48C9            call    F_CheckOpticalSleep   
556 C07D 3BB4C9            call    F_CheckBTSleep   
557 C080 1B39C0            jmp     Main_Loop    
558               
559               ;;==================================================================================================
560               ;;
561               ;;Module Name:	F_Timer0_INT
562               ;;
563               ;;Describe:			2Hz Interrupt
564               ;;
565               ;;==================================================================================================
566               F_Timer0_INT:                 
567 C083 F1EC              clr1    T0MIR        
568 C085 F1EE              clr1    T0MIF        
569 C087 810C              set1    R_Flag.B_2HzKey   
570 C089 8911              inc     R_HalfSecond   
571 C08B 0E                push    A            
572               
573 C08C 330D09            bbc     R_Flag1.B_MuteFlag,L_Timer0_INT_Exit   
574 C08F 3B6ED0            call    F_PowerOffLed   
575 C092 031103            bbs     R_HalfSecond.0,L_Timer0_INT_Exit   
576 C095 3B6AD0            call    F_DisplayLed   
577               L_Timer0_INT_Exit:            
578 C098 0D                pop     A            
579 C099 7F                reti                 
580               
581               ;;==================================================================================================
582               ;;
583               ;;Module Name:	F_Timer3_INT
584               ;;
585               ;;Describe:			8192Hz Interrupt
586               ;;
587               ;;==================================================================================================
588               F_Timer3_INT:                 
589 C09A 0E                push    A            
590 C09B 4E                push    Y            
591 C09C 2E                push    X            
592 C09D 31EC              clr1    T3MIR        
593 C09F 31EE              clr1    T3MIF        
594 C0A1 610C              set1    R_Flag.B_8192Hz   
595 C0A3 4B0D00            not1    R_Flag1.B_4KHz   
596 C0A6 130D00            bbc     R_Flag1.B_4KHz,L_IRInterrupt   
597               
598               L_IRInterrupt:                
599 C0A9 3B03CA            call    F_ReceiveIR   
600               ;			call	F_CoderProcess
601 C0AC 3B57CB            call    F_CoderProcess1   
602 C0AF 3BCECB            call    F_CoderProcess2   
603 C0B2 3BD0CB            call    F_CoderProcess3   
604 C0B5 3BB5C9            call    F_CheckAudioIn   
605               
606               L_Timer3_INT:                 
607 C0B8 2D                pop     X            
608 C0B9 4D                pop     Y            
609 C0BA 0D                pop     A            
610 C0BB 7F                reti                 
611               
612               
613               ;;==================================================================================================
614               ;;
615               ;;Module Name:	F_Timer2_INT
616               ;;
617               ;;Describe:			256Hz Interrupt
618               ;;
619               ;;==================================================================================================
620               F_Timer2_INT:                 
621 C0BC 0E                push    A            
622 C0BD 71EC              clr1    T2MIR        
623 C0BF 71EE              clr1    T2MIF        
624 C0C1 4B0C40            not1    R_Flag.B_256Hz   
625 C0C4 530C05            bbc     R_Flag.B_256Hz,L_256HzTimer   
626               L_128HzTimer:                 
627 C0C7 210C              set1    R_Flag.B_128Hz   
628 C0C9 3B9FD0            call    F_DisplayBTLed   
629               
630               L_256HzTimer:                 
631               L_Timer2_INT:                 
632 C0CC 0D                pop     A            
633 C0CD 7F                reti                 
634               
635               ;;==================================================================================================
636               ;;
637               ;;	Include Programming file
638               ;;
639               ;;==================================================================================================
640                        include  MC81F4416.asm   
641               ;;==================================================================================================
642               ;;
643               ;;Module Name:	F_InitialMC81F4416
644               ;;
645               ;;==================================================================================================
646               F_InitialMC81F4416:           
647 C0CE E402BC            ldm     OSCSEL,#00000010B   ;启动振动
648               
649 C0D1 E4C0F4            ldm     WDTR,#11000000B   ;watch dog
650 C0D4 E400F6            ldm     WDTSR,#00000000B   
651 C0D7 E41EF2            ldm     CKCTLR,#00011110B   
652               
653 C0DA E45AF3            ldm     PORC,#05AH   ;disable POR
654               
655 C0DD E4E1C0            ldm     P0,#11100001B   
656 C0E0 E448C6            ldm     P0CONH,#01001000B   
657 C0E3 E4A4C7            ldm     P0CONM,#10100100B   
658 C0E6 E43CC8            ldm     P0CONL,#00111100B   
659 C0E9 E401C9            ldm     P0PU,#00000001B   ;1->Enable Pull Up
660               
661 C0EC E43FC1            ldm     P1,#00111111B   
662 C0EF E4FFD3            ldm     P1CONH,#11111111B   
663 C0F2 E420D4            ldm     P1CONM,#00100000B   
664 C0F5 E403D5            ldm     P1CONL,#00000011B   
665 C0F8 E400D6            ldm     P1PU,#00000000B   ;1->Enable Pull Up						
666               
667 C0FB E47FC2            ldm     P2,#01111111B   
668 C0FE E4D5D9            ldm     P2CONH,#11010101B   
669 C101 E455DA            ldm     P2CONL,#01010101B   
670 C104 E400DB            ldm     P2PU,#00000000B   ;1->Enable Pull Up										
671               
672 C107 E43EC3            ldm     P3,#00111110B   
673 C10A E402DC            ldm     P3CONH,#00000010B   
674 C10D E49CDD            ldm     P3CONL,#10011100B   
675               
676 C110 E4FFC4            ldm     P4,#11111111B   
677 C113 E4AADE            ldm     P4CONH,#10101010B   
678 C116 E4AADF            ldm     P4CONL,#10101010B   
679               
680 C119 E40FC5            ldm     P5,#00001111B   
681 C11C E41AE0            ldm     P5CON,#00011010B   
682               
683 C11F 3B03C2            call    !WDTC        
684 C122 C419              lda     #25          ;wait 32.768Hz Stabilization
685 C124 3BC7C1            call    !F_DelayXms   
686 C127 3B03C2            call    !WDTC        
687 C12A C419              lda     #25          
688 C12C 3BC7C1            call    !F_DelayXms   
689               
690 C12F E428F0            ldm     WTSCR,#00101000B   ;off
691               
692 C132 E400B3            ldm     T1SCR,#00000000B   ;off
693               ;	ldm	T1DR,#127
694               
695 C135 E408B1            ldm     T0DR,#08H    
696 C138 E43DB4            ldm     T1DR,#3DH    
697 C13B E49DB0            ldm     T0SCR,#10011101B   ;2Hz
698               
699 C13E E41EB6            ldm     T2SCR,#00011110B   ;256Hz
700 C141 E43CB7            ldm     T2DR,#60     
701               
702 C144 E419B9            ldm     T3SCR,#00011001B   ;8KHz
703 C147 E479BA            ldm     T3DR,#121    
704               
705 C14A E4E0CE            ldm     PWMSCR,#11100000B   ;PWM3O
706 C14D E400D0            ldm     PWM2DR,#00000000B   
707 C150 E400D1            ldm     PWM3DR,#00000000B   
708 C153 E400D2            ldm     PWM4DR,#00000000B   
709               ;	ldm	T2DR,#240
710 C156 E400CF            ldm     PWMPDR,#00000000B   
711               ;	ldm	T2SCR,#00010000B
712               
713 C159 E410E5            ldm     BUZR,#00010000B   ;disable Buzzer
714 C15C E400E6            ldm     BUPDR,#00000000B   
715               
716 C15F E410BD            ldm     ADCM,#(00010000B+C_ADC_KeyChannel)   ;disable ADC
717               
718 C162 E400E7            ldm     SIOCR,#00000000B   ;disable SIO
719               
720 C165 E400E2            ldm     IICSCR,#00000000B   ;disable IIC
721               
722 C168 E40CFD            ldm     UCONL,#00001100B   ;enable UART
723 C16B E406FF            ldm     BRDAT,#06    
724 C16E E440FC            ldm     UCONH,#01000000B   
725 C171 C402              lda     #2           
726 C173 3BC7C1            call    !F_DelayXms   
727 C176 E4FFFE            ldm     TXSR0,#0FFH   
728               ;	set1	TX0IF
729 C179 91ED              clr1    RX0IF        
730               
731 C17B E48AEA            ldm     IENH,#10001010B   
732 C17E E400EB            ldm     IENL,#00000000B   
733 C181 E400EC            ldm     IRQH,#00000000B   
734 C184 E400ED            ldm     IRQL,#00000000B   
735 C187 E400EE            ldm     INTFH,#00000000B   
736 C18A E400EF            ldm     INTFL,#00000000B   
737               
738 C18D E400CA            ldm     EINT0H,#00000000B   
739 C190 E400CB            ldm     EINT0L,#00000000B   
740 C193 E400D7            ldm     EINT1,#00000000B   
741 C196 E400CC            ldm     ERQ0,#00000000B   
742 C199 E400D8            ldm     ERQ1,#00000000B   
743 C19C E400CD            ldm     EINTFH,#00000000B   
744               
745 C19F 3BA1CB            call    F_ResetCoder1   
746 C1A2 3BCFCB            call    F_ResetCoder2   
747 C1A5 3BD1CB            call    F_ResetCoder3   
748 C1A8 3B3ECB            call    F_ResetIR    
749 C1AB E0                EI                   
750               L_InitialMC81F4416_Exit:      
751 C1AC 6F                ret                  
752               
753               ;;==================================================================================================
754               ;;
755               ;;Module Name:	F_InitialSystem
756               ;;
757               ;;==================================================================================================
758               F_InitialSystem:              
759 C1AD E1C2              set1    R_StandbyCtrl.B_StandbyCtrl   
760 C1AF C414              lda     #20          
761 C1B1 3BDCC1            call    F_Delay7_8125ms   
762 C1B4 3B79C8            call    F_Initial24C02   
763 C1B7 F1C2              clr1    R_StandbyCtrl.B_StandbyCtrl   
764 C1B9 C414              lda     #20          
765 C1BB 3BDCC1            call    F_Delay7_8125ms   
766 C1BE E40011            ldm     R_HalfSecond,#0   
767               
768 C1C1 1B51C4            jmp     L_PowerOnKey   
769               L_InitialSystem_Exit:         
770 C1C4 6F                ret                  
771               
772               ;;===========================================================================
773               ;;
774               ;;Module Name:	F_PowerOnIO
775               ;;
776               ;;===========================================================================
777               F_PowerOnIO:                  
778               
779               L_PowerOnIO_Exit:             
780 C1C5 6F                ret                  
781               
782               ;;===========================================================================
783               ;;
784               ;;Module Name:	F_PowerOffIO
785               ;;
786               ;;===========================================================================
787               F_PowerOffIO:                 
788               
789               L_PowerOffIO_Exit:            
790 C1C6 6F                ret                  
791               
792               ;;===================================================================================================
793               ;;
794               ;;Module Name:	F_DelayXms
795               ;;
796               ;;Input:				A(0:256ms,1~255:1~255ms)
797               ;;
798               ;;Output:				Non
799               ;;
800               ;;Use:					A,R0,R1
801               ;;
802               ;;Describe:			指令计算方式
803               ;;
804               ;;===================================================================================================
805               F_DelayXms:                   
806 C1C7 E505              sta     R1           
807 C1C9 E4FA04            ldm     R0,#250      
808               L_DelayXms_Loop:              
809 C1CC FF                nop                  
810 C1CD FF                nop                  
811 C1CE FF                nop                  
812 C1CF FF                nop                  
813 C1D0 A904              dec     R0           
814 C1D2 70F8              bne     L_DelayXms_Loop   
815 C1D4 E4FA04            ldm     R0,#250      
816 C1D7 A905              dec     R1           
817 C1D9 70F1              bne     L_DelayXms_Loop   
818               L_DelayXms_Exit:              
819 C1DB 6F                ret                  
820               
821               ;;======================================================================================
822               ;;
823               ;;Module Name:	F_Delay7_8125ms
824               ;;
825               ;;Input:				A(A*7.8125ms)
826               ;;
827               ;;Output:				Non
828               ;;
829               ;;======================================================================================
830               F_Delay7_8125ms:              
831 C1DC 310C              clr1    R_Flag.B_128Hz   
832               L_Delay7_8125ms_Loop:         
833 C1DE 3B03C2            call    WDTC         
834 C1E1 330CFA            bbc     R_Flag.B_128Hz,L_Delay7_8125ms_Loop   
835 C1E4 310C              clr1    R_Flag.B_128Hz   
836 C1E6 A8                dec     A            
837 C1E7 70F5              bne     L_Delay7_8125ms_Loop   
838               L_Delay7_8125ms_Exit:         
839 C1E9 6F                ret                  
840               
841               ;;========================================================================
842               ;;
843               ;;Module Name:	F_Delay1ms
844               ;;
845               ;;Input:				A(A*1.0ms)
846               ;;
847               ;;Output:				Non
848               ;;
849               ;;Use:					A
850               ;;
851               ;;Describe:			中断计算方式
852               ;;
853               ;;========================================================================
854               F_Delay1ms:                   
855 C1EA 2E                push    X            
856 C1EB 1E00              ldx     #0           
857 C1ED 710C              clr1    R_Flag.B_8192Hz   
858               L_Delay1ms_Loop:              
859 C1EF 3B03C2            call    WDTC         
860 C1F2 730CFA            bbc     R_Flag.B_8192Hz,L_Delay1ms_Loop   
861 C1F5 710C              clr1    R_Flag.B_8192Hz   
862 C1F7 8F                inc     X            
863 C1F8 5E09              cmpx    #9           
864 C1FA 50F3              bcc     L_Delay1ms_Loop   
865 C1FC 1E00              ldx     #0           
866 C1FE A8                dec     A            
867 C1FF 70EE              bne     L_Delay1ms_Loop   
868 C201 2D                pop     X            
869               L_Delay1ms_Exit:              
870 C202 6F                ret                  
871               
872               ;;===================================================================================================
873               ;;
874               ;;Module Name:	WDTC
875               ;;
876               ;;Use:					Non
877               ;;
878               ;;===================================================================================================
879               WDTC:                         
880 C203 E4C0F4            ldm     WDTR,#11000000B   
881               WDTC_Exit:                    
882 C206 6F                ret                  
883               
884               ;;===================================================================================================
885               ;;
886               ;;Module Name:	F_GetADCValue
887               ;;
888               ;;Input:				A(ADC Channel Number:bit3~bit0-->ADS3~ADS0)
889               ;;
890               ;;Output:				R1,R0(10bits)
891               ;;
892               ;;===================================================================================================
893               F_GetADCValue:                
894 C207 840F              and     #00001111B   
895 C209 6410              or      #00010000B   
896 C20B E5BD              sta     ADCM         
897 C20D FF                nop                  
898 C20E FF                nop                  
899 C20F FF                nop                  
900 C210 FF                nop                  
901 C211 6480              or      #10000000B   
902 C213 E5BD              sta     ADCM         
903 C215 E44604            ldm     R0,#70       
904               L_GetADCValue_Loop:           
905 C218 A904              dec     R0           
906 C21A 70FC              bne     L_GetADCValue_Loop   
907 C21C C5BF              lda     ADCRL        
908 C21E CE                xcn                  
909 C21F 840F              and     #00001111B   
910 C221 E504              sta     R0           
911 C223 C5BE              lda     ADCRH        
912 C225 CE                xcn                  
913 C226 E505              sta     R1           
914 C228 84F0              and     #11110000B   
915 C22A 6504              or      R0           
916 C22C E504              sta     R0           
917 C22E C505              lda     R1           
918 C230 840F              and     #00001111B   
919 C232 E505              sta     R1           
920 C234 C400              lda     #C_ADC_KeyChannel   
921 C236 840F              and     #00001111B   
922 C238 6410              or      #00010000B   
923 C23A E5BD              sta     ADCM         
924               L_GetADCValue_Exit:           
925 C23C 6F                ret                  
926               
927               ;;====================================================================================
928               ;;
929               ;;Module Name:	F_BCD_Subc		F_BCD_Sub
930               ;;
931               ;;Input:				R0-A-STATUS.C
932               ;;
933               ;;Output:				A,STATUS.C
934               ;;
935               ;;Use:					A,R0,R1,X
936               ;;
937               ;;====================================================================================
938               F_BCD_Subc:                   
939 C23D D027              bcs     F_BCD_Sub    
940 C23F 8904              inc     R0           
941 C241 A904              dec     R0           
942 C243 7009              bne     L_BCD_Sub_One   
943 C245 E505              sta     R1           
944 C247 A0                setc                 
945 C248 C499              lda     #099H        
946 C24A 2505              sbc     R1           
947 C24C 20                clrc                 
948               L_BCD_Subc_Exit:              
949 C24D 6F                ret                  
950               
951               L_BCD_Sub_One:                
952 C24E E505              sta     R1           
953 C250 A0                setc                 
954 C251 C504              lda     R0           
955 C253 E8                tax                  
956 C254 2401              sbc     #1           
957 C256 E504              sta     R0           
958 C258 C8                txa                  
959 C259 840F              and     #00001111B   
960 C25B 7007              bne     L_BCD_Subc_One   
961 C25D A0                setc                 
962 C25E C504              lda     R0           
963 C260 2406              sbc     #6           
964 C262 E504              sta     R0           
965               L_BCD_Subc_One:               
966 C264 C505              lda     R1           
967               F_BCD_Sub:                    
968 C266 0E                push    A            
969               ;	ld	XL,A
970 C267 840F              and     #00001111B   
971 C269 E505              sta     R1           
972 C26B A0                setc                 
973 C26C C504              lda     R0           
974 C26E E8                tax                  
975 C26F 2505              sbc     R1           
976 C271 E504              sta     R0           
977 C273 C8                txa                  
978 C274 840F              and     #00001111B   
979 C276 4505              cmp     R1           
980 C278 D007              bcs     L_BCD_Sub    
981 C27A A0                setc                 
982 C27B C504              lda     R0           
983 C27D 2406              sbc     #6           
984 C27F E504              sta     R0           
985               L_BCD_Sub:                    
986 C281 C504              lda     R0           
987 C283 84F0              and     #11110000B   
988 C285 44A0              cmp     #0A0H        
989 C287 5013              bcc     L_BCD_Sub_Hi   
990 C289 A0                setc                 
991 C28A C504              lda     R0           
992 C28C 2460              sbc     #060H        
993 C28E E504              sta     R0           
994 C290 0D                pop     A            
995               ;	ld	A,XL
996 C291 84F0              and     #11110000B   
997 C293 E505              sta     R1           
998 C295 A0                setc                 
999 C296 C504              lda     R0           
1000 C298 2505              sbc     R1           
1001 C29A 20                clrc                 
1002 C29B 6F                ret                  
1003               L_BCD_Sub_Hi:                 
1004 C29C 0D                pop     A            
1005               ;	ld	A,XL
1006 C29D 84F0              and     #11110000B   
1007 C29F E505              sta     R1           
1008 C2A1 A0                setc                 
1009 C2A2 C504              lda     R0           
1010 C2A4 2505              sbc     R1           
1011 C2A6 D0A5              bcs     L_BCD_Subc_Exit   
1012 C2A8 A0                setc                 
1013 C2A9 2460              sbc     #060H        
1014 C2AB 20                clrc                 
1015 C2AC 6F                ret                  
1016               
1017               
1018               ;;======================================================================================
1019               ;;
1020               ;;Module Name:	F_BCD_Addc	F_BCD_Add
1021               ;;
1022               ;;Input:				R0+A+STATUS.C
1023               ;;
1024               ;;Output:				A,STATUS.C
1025               ;;
1026               ;;Use:					A,R0,X
1027               ;;
1028               ;;=====================================================================================
1029               F_BCD_Addc:                   
1030 C2AD 501A              bcc     F_BCD_Add    
1031 C2AF 20                clrc                 
1032 C2B0 0401              adc     #1           
1033 C2B2 E8                tax                  
1034 C2B3 840F              and     #00FH        
1035 C2B5 440A              cmp     #00AH        
1036 C2B7 500F              bcc     L_Enter_BCD_Add   
1037 C2B9 20                clrc                 
1038 C2BA C8                txa                  
1039 C2BB 0406              adc     #006         
1040 C2BD E8                tax                  
1041 C2BE 84F0              and     #0F0H        
1042 C2C0 44A0              cmp     #0A0H        
1043 C2C2 5004              bcc     L_Enter_BCD_Add   
1044 C2C4 C504              lda     R0           
1045 C2C6 A0                setc                 
1046               L_BCD_Addc_Exit:              
1047 C2C7 6F                ret                  
1048               
1049               L_Enter_BCD_Add:              
1050 C2C8 C8                txa                  
1051               F_BCD_Add:                    
1052 C2C9 20                clrc                 
1053 C2CA E8                tax                  
1054 C2CB 840F              and     #00FH        
1055 C2CD 0504              adc     R0           
1056 C2CF E504              sta     R0           
1057 C2D1 6E                push    PSW          
1058 C2D2 0D                pop     A            
1059 C2D3 8408              and     #00001000B   
1060 C2D5 F007              beq     L_BCD_Add    
1061 C2D7 20                clrc                 
1062 C2D8 C406              lda     #6           
1063 C2DA 0504              adc     R0           
1064 C2DC E504              sta     R0           
1065               L_BCD_Add:                    
1066 C2DE C504              lda     R0           
1067 C2E0 840F              and     #00FH        
1068 C2E2 440A              cmp     #00AH        
1069 C2E4 5007              bcc     L_BCD_AddL   
1070 C2E6 20                clrc                 
1071 C2E7 C406              lda     #6           
1072 C2E9 0504              adc     R0           
1073 C2EB E504              sta     R0           
1074               L_BCD_AddL:                   
1075 C2ED C504              lda     R0           
1076 C2EF 84F0              and     #0F0H        
1077 C2F1 44A0              cmp     #0A0H        
1078 C2F3 D024              bcs     L_BCD_Addc   
1079 C2F5 20                clrc                 
1080 C2F6 C8                txa                  
1081 C2F7 84F0              and     #0F0H        
1082 C2F9 0504              adc     R0           
1083 C2FB E504              sta     R0           
1084 C2FD 5007              bcc     L_BCD_AddH   
1085 C2FF 20                clrc                 
1086 C300 C460              lda     #060H        
1087 C302 0504              adc     R0           
1088 C304 A0                setc                 
1089 C305 6F                ret                  
1090               
1091               L_BCD_AddH:                   
1092 C306 C504              lda     R0           
1093 C308 84F0              and     #0F0H        
1094 C30A 44A0              cmp     #0A0H        
1095 C30C 5007              bcc     L_BCD_Addnc   
1096 C30E 20                clrc                 
1097 C30F C460              lda     #060H        
1098 C311 0504              adc     R0           
1099 C313 A0                setc                 
1100 C314 6F                ret                  
1101               
1102               L_BCD_Addnc:                  
1103 C315 C504              lda     R0           
1104 C317 20                clrc                 
1105 C318 6F                ret                  
1106               
1107               L_BCD_Addc:                   
1108 C319 C8                txa                  
1109 C31A 84F0              and     #0F0H        
1110 C31C E505              sta     R1           
1111 C31E C504              lda     R0           
1112 C320 840F              and     #00FH        
1113 C322 6505              or      R1           
1114 C324 A0                setc                 
1115 C325 6F                ret                  
1116               
1117               ;;=========================================================================
1118               ;;
1119               ;;Module Name:	F_ChangeBCDtoHEX
1120               ;;
1121               ;;Input:				A
1122               ;;
1123               ;;Output:				A
1124               ;;
1125               ;;Use:					A,Y,R0
1126               ;;
1127               ;;=========================================================================
1128               F_ChangeBCDtoHEX:             
1129 C326 E504              sta     R0           
1130 C328 CE                xcn                  
1131 C329 840F              and     #00FH        
1132 C32B 3E0A              ldy     #10          
1133 C32D 5B                mul                  
1134 C32E 9F                tay                  
1135 C32F C504              lda     R0           
1136 C331 840F              and     #00FH        
1137 C333 E504              sta     R0           
1138 C335 20                clrc                 
1139 C336 BF                tya                  
1140 C337 0504              adc     R0           
1141               L_ChangeBCDtoHEX_Exit:        
1142 C339 6F                ret                  
1143               
1144               ;;========================================================================
1145               ;;
1146               ;;Module Name:	F_CheckBCDCode
1147               ;;
1148               ;;Input:				A(不会被改变)
1149               ;;
1150               ;;Output:				Cy(1:表示非BCD Code,	0:表示是BCD Code)
1151               ;;
1152               ;;Use:					A
1153               ;;
1154               ;;========================================================================
1155               F_CheckBCDCode:               
1156 C33A 0E                push    A            
1157 C33B 840F              and     #00FH        
1158 C33D 440A              cmp     #00AH        
1159 C33F D006              bcs     L_CheckBCDCode_Over   
1160 C341 0D                pop     A            
1161 C342 0E                push    A            
1162 C343 84F0              and     #0F0H        
1163 C345 44A0              cmp     #0A0H        
1164               L_CheckBCDCode_Over:          
1165 C347 0D                pop     A            
1166               L_CheckBCDCode_Exit:          
1167 C348 6F                ret                  
1168               
1169               ;;=====================================================================================
1170               ;;
1171               ;;Module Name:	F_ChangeHEXtoBCD
1172               ;;
1173               ;;Input:				A(<=63HEX)
1174               ;;
1175               ;;Output:				A
1176               ;;
1177               ;;Use:					R0,Y,A
1178               ;;
1179               ;;=====================================================================================
1180               F_ChangeHEXtoBCD:             
1181 C349 E504              sta     R0           
1182 C34B CE                xcn                  
1183 C34C 840F              and     #00001111B   
1184 C34E 9F                tay                  
1185 C34F D589C3            lda     !T_GetHEXTable+Y   
1186 C352 0E                push    A            
1187 C353 C504              lda     R0           
1188 C355 840F              and     #00FH        
1189 C357 E504              sta     R0           
1190 C359 440A              cmp     #00AH        
1191 C35B 5007              bcc     L_ChangeHexadecimal   
1192 C35D 20                clrc                 
1193 C35E C504              lda     R0           
1194 C360 0406              adc     #6           
1195 C362 E504              sta     R0           
1196               L_ChangeHexadecimal:          
1197 C364 20                clrc                 
1198 C365 0D                pop     A            
1199 C366 0504              adc     R0           
1200 C368 E504              sta     R0           
1201 C36A 6E                push    psw          
1202 C36B 0D                pop     A            
1203 C36C 8408              and     #00001000B   
1204 C36E F007              beq     L_ChangeHEXtoBCD   
1205 C370 20                clrc                 
1206 C371 C406              lda     #6           
1207 C373 0504              adc     R0           
1208 C375 E504              sta     R0           
1209               L_ChangeHEXtoBCD:             
1210 C377 C504              lda     R0           
1211 C379 840F              and     #00FH        
1212 C37B 440A              cmp     #00AH        
1213 C37D 5007              bcc     L_ChangeHEXtoBCD_Exit   
1214 C37F 20                clrc                 
1215 C380 C406              lda     #6           
1216 C382 0504              adc     R0           
1217 C384 E504              sta     R0           
1218               L_ChangeHEXtoBCD_Exit:        
1219 C386 C504              lda     R0           
1220 C388 6F                ret                  
1221               
1222               ;;-------------------------------------------------------------------------------------
1223               T_GetHEXTable:                
1224 C389 00                db      00H          
1225 C38A 16                db      16H          
1226 C38B 32                db      32H          
1227 C38C 48                db      48H          
1228 C38D 64                db      64H          
1229 C38E 80                db      80H          
1230 C38F 96                db      96H          
1231               
1232               ;
1233               ;
1234               ;;
1235               ;;	
1236                        include  key.asm      
1237               ;Time Set		|			-			|		+			|		Audio			|		Mute			|	Volume Down		|	Volume Up		|		Power
1238               ;------------------------------------------------------------------------------------------------------
1239               ;  Pair     | 播放/暂停 |  快退   |	 快进	      |   下翻      |    上翻       |  Enter      |   Menu   
1240               ;------------------------------------------------------------------------------------------------------
1241               ;           |           |         |             | Treble Down |  Treble Up    |  Bass Down  |  Bass Up 
1242               ;------------------------------------------------------------------------------------------------------
1243               ;           |           |         |             |             |               |             |                                     
1244               ;------------------------------------------------------------------------------------------------------
1245               
1246               
1247               
1248               ;;=====================================================================================================
1249               ;;
1250               ;;Module Name:	F_KeyDecoder
1251               ;;
1252               ;;=====================================================================================================
1253               F_KeyDecoder:                 
1254 C390 132108            bbc     R_KeyFlag.B_KeyAction,L_KeyDecoder_Exit   
1255 C393 1121              clr1    R_KeyFlag.B_KeyAction   
1256 C395 F32004            bbc     R_KeyBuffer.7,L_KeyDecoder   
1257 C398 1B23C6            jmp     F_BreackKeyDecoder   
1258               L_KeyDecoder_Exit:            
1259 C39B 6F                ret                  
1260               
1261               L_KeyDecoder:                 
1262 C39C E40022            ldm     R_KeyTime,#0   
1263 C39F E4C303            ldm     dpmain+1,#>T_KeyDecoderTable   
1264 C3A2 E4B702            ldm     dpmain,#<T_KeyDecoderTable   
1265 C3A5 C520              lda     R_KeyBuffer   
1266 C3A7 3E03              ldy     #3           
1267 C3A9 5B                mul                  
1268 C3AA 20                clrc                 
1269 C3AB 0502              adc     dpmain       
1270 C3AD E502              sta     dpmain       
1271 C3AF C400              lda     #0           
1272 C3B1 0503              adc     dpmain+1     
1273 C3B3 E503              sta     dpmain+1     
1274 C3B5 3F02              jmp     [dpmain]     
1275               T_KeyDecoderTable:            
1276 C3B7 1B9BC3            jmp     L_KeyDecoder_Exit   
1277 C3BA 1B1EC4            jmp     L_PowerKey   ;01
1278 C3BD 1B9EC5            jmp     L_VolumeUpKey   ;02
1279 C3C0 1B9EC5            jmp     L_VolumeDnKey   ;03
1280 C3C3 1BCFC5            jmp     L_MuteKey    ;04
1281 C3C6 1BC6C4            jmp     F_AudioKey   ;05
1282 C3C9 1B9BC3            jmp     L_KeyDecoder_Exit   ;06
1283 C3CC 1B9BC3            jmp     L_KeyDecoder_Exit   ;07
1284 C3CF 1B9BC3            jmp     L_KeyDecoder_Exit   ;08
1285 C3D2 1B9BC3            jmp     L_KeyDecoder_Exit   ;09
1286 C3D5 1B9BC3            jmp     L_KeyDecoder_Exit   ;10
1287 C3D8 1B9BC3            jmp     L_KeyDecoder_Exit   ;11
1288 C3DB 1B9BC3            jmp     L_KeyDecoder_Exit   ;12
1289 C3DE 1B9BC3            jmp     L_KeyDecoder_Exit   ;13
1290 C3E1 1B9BC3            jmp     L_KeyDecoder_Exit   ;14
1291 C3E4 1B9BC3            jmp     L_KeyDecoder_Exit   ;15
1292 C3E7 1B1AC4            jmp     F_PowerAudioKey   ;16
1293 C3EA 1B9BC3            jmp     L_KeyDecoder_Exit   ;17
1294 C3ED 1B9BC3            jmp     L_KeyDecoder_Exit   ;18
1295 C3F0 1B9BC3            jmp     L_KeyDecoder_Exit   ;19
1296 C3F3 1B9BC3            jmp     L_KeyDecoder_Exit   ;20
1297 C3F6 1B9BC3            jmp     L_KeyDecoder_Exit   ;21
1298 C3F9 1B9BC3            jmp     L_KeyDecoder_Exit   ;22
1299 C3FC 1B9BC3            jmp     L_KeyDecoder_Exit   ;23
1300 C3FF 1B9BC3            jmp     L_KeyDecoder_Exit   ;24
1301 C402 1B9BC3            jmp     L_KeyDecoder_Exit   ;25
1302 C405 1B9BC3            jmp     L_KeyDecoder_Exit   ;26
1303 C408 1B9BC3            jmp     L_KeyDecoder_Exit   ;27
1304 C40B 1B9BC3            jmp     L_KeyDecoder_Exit   ;28
1305 C40E 1B9BC3            jmp     L_KeyDecoder_Exit   ;29
1306 C411 1B9BC3            jmp     L_KeyDecoder_Exit   ;30
1307 C414 1B9BC3            jmp     L_KeyDecoder_Exit   ;31
1308 C417 1B9BC3            jmp     L_KeyDecoder_Exit   ;32
1309               
1310               ;;=====================================================================
1311               F_PowerAudioKey:              
1312 C41A E40322            ldm     R_KeyTime,#3   
1313               L_PowerAudioKey_Exit:         
1314 C41D 6F                ret                  
1315               
1316               ;;=========================================================================================================
1317               L_PowerKey:                   
1318 C41E C50E              lda     R_MainMode   
1319 C420 F02F              beq     L_PowerOnKey   
1320               L_PowerOffKey:                
1321 C422 3BDAD0            call    F_PowerOffBT   
1322 C425 3B04CE            call    F_SetVolumeMute   
1323 C428 C403              lda     #3           
1324 C42A 3B3AC6            call    F_Delay15_625ms   
1325 C42D E40010            ldm     R_SetTimeFlag,#0   
1326 C430 E4000E            ldm     R_MainMode,#0   
1327 C433 310D              clr1    R_Flag1.B_MuteFlag   
1328 C435 3BF5CC            call    F_MuteOnCtrl   
1329 C438 C40F              lda     #15          
1330 C43A 3B3AC6            call    F_Delay15_625ms   
1331 C43D 3B15D1            call    F_PowerOffOptical   
1332 C440 3B37CF            call    F_PowerOffAmplify   
1333 C443 3B6ED0            call    F_PowerOffLed   
1334 C446 3BC6C1            call    F_PowerOffIO   
1335 C449 F1C2              clr1    R_StandbyCtrl.B_StandbyCtrl   
1336 C44B C414              lda     #20          
1337 C44D 3B3AC6            call    F_Delay15_625ms   
1338               L_PowerOffKey_Exit:           
1339 C450 6F                ret                  
1340               
1341               L_PowerOnKey:                 
1342 C451 C50F              lda     R_ModeTemp   
1343 C453 E50E              sta     R_MainMode   
1344 C455 3B6AD0            call    F_DisplayLed   
1345 C458 E1C2              set1    R_standbyCtrl.B_standbyCtrl   
1346 C45A 3BC5C1            call    F_PowerOnIO   
1347 C45D 3BF5CC            call    F_MuteOnCtrl   
1348 C460 C414              lda     #20          
1349 C462 3B3AC6            call    F_Delay15_625ms   
1350 C465 3B13CF            call    F_PowerOnAmplify   
1351 C468 3B04CE            call    F_SetVolumeMute   
1352 C46B 310D              clr1    R_Flag1.B_MuteFlag   
1353 C46D E40010            ldm     R_SetTimeFlag,#0   
1354 C470 C50F              lda     R_ModeTemp   
1355 C472 E50E              sta     R_MainMode   
1356 C474 3B6AD0            call    F_DisplayLed   
1357 C477 3BE2CE            call    F_SetVolumeChannel   
1358 C47A C401              lda     #C_BTMode    
1359 C47C 450E              cmp     R_MainMode   
1360 C47E F023              beq     L_PowerOnBTKey   
1361 C480 C402              lda     #C_AuxMode   
1362 C482 450E              cmp     R_MainMode   
1363 C484 F008              beq     L_PowerOnAuxKey   
1364 C486 3BE8D0            call    F_PowerOnOptical   
1365 C489 C403              lda     #3           
1366 C48B 3B3AC6            call    F_Delay15_625ms   
1367               L_PowerOnAuxKey:              
1368 C48E 3BB5CB            call    F_ClearCoder   
1369 C491 C513              lda     R_VolumeTemp   
1370 C493 E512              sta     R_Volume     
1371 C495 F00B              beq     L_PowerOnKey_Exit   
1372 C497 3BEECC            call    F_MuteOffCtrl   
1373 C49A C40F              lda     #15          
1374 C49C 3B3AC6            call    F_Delay15_625ms   
1375                        #IF     VolumeRamUp   
1376                        ldm     R_Volume,#1   
1377                        #ENDIF               
1378 C49F 3BF9CC            call    F_SetVolume   
1379               L_PowerOnKey_Exit:            
1380 C4A2 6F                ret                  
1381               
1382               L_PowerOnBTKey:               
1383 C4A3 C513              lda     R_VolumeTemp   
1384 C4A5 E512              sta     R_Volume     
1385 C4A7 F00B              beq     L_PowerOnBTKey_Over   
1386 C4A9 3BEECC            call    F_MuteOffCtrl   
1387 C4AC C40F              lda     #15          
1388 C4AE 3B3AC6            call    F_Delay15_625ms   
1389                        #IF     VolumeRamUp   
1390                        ldm     R_Volume,#1   
1391                        #ENDIF               
1392 C4B1 3BF9CC            call    F_SetVolume   
1393               L_PowerOnBTKey_Over:          
1394 C4B4 3BD2D0            call    F_PowerOnBT   
1395 C4B7 3BB5CB            call    F_ClearCoder   
1396               L_PowerOnBTKey_Exit:          
1397 C4BA 6F                ret                  
1398               
1399               ;;=================================================================
1400               L_TurnToRCAMode:              
1401 C4BB E30C1A            bbs     R_Flag.B_RCAMode,L_TurnToOpticalMode   
1402 C4BE 3BDAD0            call    F_PowerOffBT   
1403 C4C1 E10C              set1    R_Flag.B_RCAMode   
1404 C4C3 1B5BC5            jmp     L_TurnToAuxMode   
1405               
1406               ;;====================================================================================
1407               F_AudioKey:                   
1408 C4C6 C50E              lda     R_MainMode   
1409 C4C8 F050              beq     L_AudioKey_Exit   
1410 C4CA C50E              lda     R_MainMode   
1411 C4CC 4402              cmp     #C_AuxMode   
1412 C4CE F0EB              beq     L_TurnToRCAMode   
1413               ;	cmp	#C_BTMode
1414               ;	bne	L_TurnToBTMode
1415 C4D0 3BDAD0            call    F_PowerOffBT   
1416 C4D3 F10C              clr1    R_Flag.B_RCAMode   
1417 C4D5 1B5BC5            jmp     L_TurnToAuxMode   
1418               L_TurnToOpticalMode:          
1419 C4D8 3BDAD0            call    F_PowerOffBT   
1420 C4DB E4030E            ldm     R_MainMode,#C_OpticalMode   
1421 C4DE E4030F            ldm     R_ModeTemp,#C_OpticalMode   
1422 C4E1 3B74C8            call    F_StoreMode   
1423 C4E4 E40010            ldm     R_SetTimeFlag,#0   
1424 C4E7 310D              clr1    R_Flag1.B_MuteFlag   
1425 C4E9 3B6AD0            call    F_DisplayLed   
1426 C4EC 3B04CE            call    F_SetVolumeMute   
1427 C4EF C40A              lda     #10          
1428 C4F1 3B3AC6            call    F_Delay15_625ms   
1429 C4F4 3BE8D0            call    F_PowerOnOptical   
1430 C4F7 3BE2CE            call    F_SetVolumeChannel   
1431 C4FA 3BA7C9            call    F_InitialOpticalSleep   
1432 C4FD C40A              lda     #10          
1433 C4FF 3B3AC6            call    F_Delay15_625ms   
1434 C502 3BB5CB            call    F_ClearCoder   
1435 C505 C513              lda     R_VolumeTemp   
1436 C507 F011              beq     L_AudioKey_Exit   
1437 C509 3BEECC            call    F_MuteOffCtrl   
1438 C50C C40F              lda     #15          
1439 C50E 3B3AC6            call    F_Delay15_625ms   
1440 C511 C513              lda     R_VolumeTemp   
1441 C513 4512              cmp     R_Volume     
1442 C515 7003              bne     L_AudioKey_Exit   
1443 C517 3BF9CC            call    F_SetVolume   
1444               L_AudioKey_Exit:              
1445 C51A 6F                ret                  
1446               
1447               L_TurnToBTMode:               
1448 C51B E4010E            ldm     R_MainMode,#C_BTMode   
1449 C51E E4010F            ldm     R_ModeTemp,#C_BTMode   
1450 C521 3B74C8            call    F_StoreMode   
1451 C524 E40010            ldm     R_SetTimeFlag,#0   
1452 C527 310D              clr1    R_Flag1.B_MuteFlag   
1453 C529 3B6AD0            call    F_DisplayLed   
1454 C52C 3B04CE            call    F_SetVolumeMute   
1455 C52F C40A              lda     #10          
1456 C531 3B3AC6            call    F_Delay15_625ms   
1457 C534 3B15D1            call    F_PowerOffOptical   
1458 C537 3BE2CE            call    F_SetVolumeChannel   
1459               ;	call	F_InitialBTSleep
1460 C53A C40A              lda     #10          
1461 C53C 3B3AC6            call    F_Delay15_625ms   
1462 C53F C513              lda     R_VolumeTemp   
1463 C541 F011              beq     L_TurnToBTMode_Over   
1464 C543 3BEECC            call    F_MuteOffCtrl   
1465 C546 C40F              lda     #15          
1466 C548 3B3AC6            call    F_Delay15_625ms   
1467 C54B C513              lda     R_VolumeTemp   
1468 C54D 4512              cmp     R_Volume     
1469 C54F 7003              bne     L_TurnToBTMode_Over   
1470 C551 3BF9CC            call    F_SetVolume   
1471               L_TurnToBTMode_Over:          
1472 C554 3BD2D0            call    F_PowerOnBT   
1473 C557 3BB5CB            call    F_ClearCoder   
1474               L_TurnToBTMode_Exit:          
1475 C55A 6F                ret                  
1476               
1477               L_TurnToAuxMode:              
1478               ;	call	F_PowerOffBT
1479 C55B E4020E            ldm     R_MainMode,#C_AuxMode   
1480 C55E E4020F            ldm     R_ModeTemp,#C_AuxMode   
1481 C561 3B75C8            call    F_StoreFlag   
1482 C564 3B74C8            call    F_StoreMode   
1483 C567 E40010            ldm     R_SetTimeFlag,#0   
1484 C56A 310D              clr1    R_Flag1.B_MuteFlag   
1485 C56C 3B6AD0            call    F_DisplayLed   
1486 C56F 3B04CE            call    F_SetVolumeMute   
1487 C572 C40A              lda     #10          
1488 C574 3B3AC6            call    F_Delay15_625ms   
1489 C577 3B15D1            call    F_PowerOffOptical   
1490 C57A 3BE2CE            call    F_SetVolumeChannel   
1491 C57D 3B3BC9            call    F_InitialAuxSleep   
1492 C580 C40A              lda     #10          
1493 C582 3B3AC6            call    F_Delay15_625ms   
1494 C585 3BB5CB            call    F_ClearCoder   
1495 C588 C513              lda     R_VolumeTemp   
1496 C58A F011              beq     L_TurnToAuxMode_Exit   
1497 C58C 3BEECC            call    F_MuteOffCtrl   
1498 C58F C40F              lda     #15          
1499 C591 3B3AC6            call    F_Delay15_625ms   
1500 C594 C513              lda     R_VolumeTemp   
1501 C596 4512              cmp     R_Volume     
1502 C598 7003              bne     L_TurnToAuxMode_Exit   
1503 C59A 3BF9CC            call    F_SetVolume   
1504               L_TurnToAuxMode_Exit:         
1505 C59D 6F                ret                  
1506               
1507               ;;=================================================================
1508               L_VolumeUpKey:                
1509               L_VolumeDnKey:                
1510 C59E C50E              lda     R_MainMode   
1511 C5A0 F02C              beq     L_VolumeKey_Exit   
1512 C5A2 330D1B            bbc     R_Flag1.B_MuteFlag,L_VolumeKey   
1513 C5A5 C512              lda     R_Volume     
1514 C5A7 F017              beq     L_VolumeKey   
1515 C5A9 4401              cmp     #1           
1516 C5AB 7003              bne     L_VolUpDnKey   
1517 C5AD 331C10            bbc     R_KeyminderBufferCol0.1,L_VolumeKey   
1518               L_VolUpDnKey:                 
1519 C5B0 3B04CE            call    F_SetVolumeMute   
1520 C5B3 C402              lda     #2           
1521 C5B5 3BDCC1            call    F_Delay7_8125ms   
1522 C5B8 3BEECC            call    F_MuteOffCtrl   
1523 C5BB C405              lda     #5           
1524 C5BD 3B3AC6            call    F_Delay15_625ms   
1525               
1526               L_VolumeKey:                  
1527 C5C0 310D              clr1    R_Flag1.B_MuteFlag   
1528 C5C2 E40110            ldm     R_SetTimeFlag,#C_SetVolume   
1529 C5C5 3B6AD0            call    F_DisplayLed   
1530 C5C8 3BE2CC            call    F_ChangeVolume   
1531 C5CB E41E14            ldm     R_VolumeTime,#30   
1532               L_VolumeKey_Exit:             
1533 C5CE 6F                ret                  
1534               
1535               ;;=====================================================================
1536               L_MuteKey:                    
1537 C5CF C50E              lda     R_MainMode   
1538 C5D1 F029              beq     L_MuteKey_Exit   
1539 C5D3 330D27            bbc     R_Flag1.B_MuteFlag,L_MuteOnKey   
1540               L_MuteOffKey:                 
1541 C5D6 E40010            ldm     R_SetTimeFlag,#00   
1542 C5D9 310D              clr1    R_Flag1.B_MuteFlag   
1543 C5DB 3B6AD0            call    F_DisplayLed   
1544 C5DE C513              lda     R_VolumeTemp   
1545 C5E0 F01A              beq     L_MuteKey_Exit   
1546 C5E2 3B04CE            call    F_SetVolumeMute   
1547 C5E5 C403              lda     #3           
1548 C5E7 3B3AC6            call    F_Delay15_625ms   
1549 C5EA 3BEECC            call    F_MuteOffCtrl   
1550 C5ED C40A              lda     #10          
1551 C5EF 3B3AC6            call    F_Delay15_625ms   
1552 C5F2 C513              lda     R_VolumeTemp   
1553 C5F4 E512              sta     R_Volume     
1554 C5F6 3B76C8            call    F_StoreVolume   
1555 C5F9 3BF9CC            call    F_SetVolume   
1556               L_MuteKey_Exit:               
1557 C5FC 6F                ret                  
1558               
1559               L_MuteOnKey:                  
1560 C5FD E40010            ldm     R_SetTimeFlag,#0   
1561 C600 210D              set1    R_Flag1.B_MuteFlag   
1562 C602 3B6ED0            call    F_PowerOffLed   
1563 C605 C513              lda     R_VolumeTemp   
1564 C607 F0F3              beq     L_MuteKey_Exit   
1565 C609 3B04CE            call    F_SetVolumeMute   
1566 C60C C403              lda     #3           
1567 C60E 3B3AC6            call    F_Delay15_625ms   
1568 C611 3BF5CC            call    F_MuteOnCtrl   
1569 C614 C40A              lda     #10          
1570 C616 3B3AC6            call    F_Delay15_625ms   
1571 C619 C513              lda     R_VolumeTemp   
1572 C61B E512              sta     R_Volume     
1573 C61D 3B76C8            call    F_StoreVolume   
1574 C620 6F                ret                  
1575               
1576               ;;=================================================================
1577               L_BassUpKey:                  
1578               L_BassDnKey:                  
1579                        #IF     BassFunction   
1580                        lda     R_MainMode   
1581                        beq     L_BassKey_Exit   
1582                        bbc     R_Flag1.B_MuteFlag,L_BassKey   
1583                        lda     R_Volume     
1584                        beq     L_BassKey    
1585                        call    F_SetVolumeMute   
1586                        lda     #2           
1587                        call    F_Delay15_625ms   
1588                        call    F_MuteOffCtrl   
1589                        lda     #05          
1590                        call    F_Delay15_625ms   
1591                        L_BassKey:               
1592                        clr1    R_Flag1.B_MuteFlag   
1593                        ldm     R_SetTimeFlag,#C_SetBass   
1594                        call    F_DisplayLed   
1595                        call    F_ChangeBass   
1596                        ldm     R_BassTime,#30   
1597                        #ENDIF               
1598               L_BassKey_Exit:               
1599 C621 6F                ret                  
1600               
1601               ;;=================================================================
1602               L_TrebleUpKey:                
1603               L_TrebleDnKey:                
1604                        #IF     TrebleFunction   
1605                        lda     R_MainMode   
1606                        beq     L_TrebleKey_Exit   
1607                        bbc     R_Flag1.B_MuteFlag,L_TrebleKey   
1608                        lda     R_Volume     
1609                        beq     L_TrebleKey   
1610                        call    F_SetVolumeMute   
1611                        lda     #2           
1612                        call    F_Delay15_625ms   
1613                        call    F_MuteOffCtrl   
1614                        lda     #05          
1615                        call    F_Delay15_625ms   
1616                        L_TrebleKey:               
1617                        clr1    R_Flag1.B_MuteFlag   
1618                        ldm     R_SetTimeFlag,#C_SetTreble   
1619                        call    F_DisplayLed   
1620                        call    F_ChangeTreble   
1621                        ldm     R_TrebleTime,#30   
1622                        #ENDIF               
1623               L_TrebleKey_Exit:             
1624 C622 6F                ret                  
1625               
1626               ;;====================================================================================
1627               ;;
1628               ;;Module Name:	F_BreackKeyDecoder
1629               ;;
1630               ;;====================================================================================
1631               F_BreackKeyDecoder:           
1632 C623 F120              clr1    R_KeyBuffer.7   
1633 C625 C520              lda     R_KeyBuffer   
1634 C627 4410              cmp     #16          
1635 C629 F004              beq     L_BreackPowerAudioKey   
1636 C62B E40022            ldm     R_KeyTime,#0   
1637               L_BreackKeyDecoder_Exit:      
1638 C62E 6F                ret                  
1639               
1640               ;;=========================================================
1641               L_BreackPowerAudioKey:        
1642 C62F C522              lda     R_KeyTime    
1643 C631 F006              beq     L_BreackPowerAudioKey_Exit   
1644 C633 E40022            ldm     R_KeyTime,#0   
1645 C636 1BC6C4            jmp     F_AudioKey   
1646               L_BreackPowerAudioKey_Exit:   
1647 C639 6F                ret                  
1648               
1649               ;;=====================================================================================
1650               ;;
1651               ;;Module Name:	F_Delay15_625ms
1652               ;;
1653               ;;Input:				A(15.625*A(ms))
1654               ;;
1655               ;;Use:					R0~R7,X,Y
1656               ;;
1657               ;;=====================================================================================
1658               F_Delay15_625ms:              
1659 C63A 0E                push    A            
1660 C63B 110C              clr1    R_Flag.B_64Hz   
1661               L_Delay15_625ms_Loop:         
1662 C63D 3B03C2            call    WDTC         
1663 C640 330CFA            bbc     R_Flag.B_128Hz,L_Delay15_625ms_Loop   
1664 C643 310C              clr1    R_Flag.B_128Hz   
1665 C645 4B0C00            not1    R_Flag.B_64Hz   
1666 C648 130CF2            bbc     R_Flag.B_64Hz,L_Delay15_625ms_Loop   
1667               
1668 C64B 3B9ED0            call    F_DisplayLcd   
1669               
1670 C64E 0D                pop     A            
1671 C64F A8                dec     A            
1672 C650 F004              beq     L_Delay15_625ms_Exit   
1673 C652 0E                push    A            
1674 C653 1B3DC6            jmp     L_Delay15_625ms_Loop   
1675               L_Delay15_625ms_Exit:         
1676 C656 6F                ret                  
1677               ;
1678               ;
1679               ;;
1680               ;;				
1681                        include  scan.asm     
1682               ;;=====================================================================================
1683               ;;
1684               ;;Module Name:	F_KeyBoardScan
1685               ;;
1686               ;;Use:					A,R0~R5,X,Y
1687               ;;
1688               ;;=====================================================================================
1689               F_KeyBoardScan:               
1690                        #IF     IRFunction   
1691 C657 232110            bbs     R_KeyFlag.B_IRKeyScan,L_KeyBoardScan   
1692 C65A 3BF5C6            call    F_MainKeyBoardScan   
1693 C65D 032135            bbs     R_KeyFlag.B_KeyAction,L_KeyBoardScan_Exit   
1694 C660 C51C              lda     R_KeyminderBufferCol0   
1695 C662 651D              or      R_KeyminderBufferCol1   
1696 C664 651E              or      R_KeyminderBufferCol2   
1697 C666 651F              or      R_KeyminderBufferCol3   
1698 C668 702B              bne     L_KeyBoardScan_Exit   
1699               
1700               L_KeyBoardScan:               
1701 C66A C533              lda     R_IRKeyBuffer   
1702 C66C 4532              cmp     R_IRKeyTemp   
1703 C66E F025              beq     L_KeyBoardScan_Exit   
1704 C670 4480              cmp     #080H        
1705 C672 D04C              bcs     L_IRBreackKey   
1706 C674 E3321F            bbs     R_IRKeyTemp.7,L_RightPressKey   
1707 C677 E132              set1    R_IRKeyTemp.7   
1708 C679 C532              lda     R_IRKeyTemp   
1709 C67B 847F              and     #01111111B   
1710 C67D 9F                tay                  
1711 C67E D516D1            lda     !T_GetIRKeyValue+Y   
1712 C681 6480              or      #080H        
1713 C683 E520              sta     R_KeyBuffer   
1714 C685 0121              set1    R_KeyFlag.B_KeyAction   
1715 C687 E4001C            ldm     R_KeyminderBufferCol0,#0   
1716 C68A E4001D            ldm     R_KeyminderBufferCol1,#0   
1717 C68D E4001E            ldm     R_KeyminderBufferCol2,#0   
1718 C690 E4001F            ldm     R_KeyminderBufferCol3,#0   
1719 C693 3121              clr1    R_KeyFlag.B_IRKeyScan   
1720               L_KeyBoardScan_Exit:          
1721 C695 6F                ret                  
1722               
1723               L_RightPressKey:              
1724               ;	lda	R_IRKeyBuffer
1725 C696 E532              sta     R_IRKeyTemp   
1726 C698 9F                tay                  
1727 C699 D516D1            lda     !T_GetIRKeyValue+Y   
1728 C69C F0F7              beq     L_KeyBoardScan_Exit   
1729 C69E E520              sta     R_KeyBuffer   
1730 C6A0 3E04              ldy     #4           
1731 C6A2 5B                mul                  
1732 C6A3 9F                tay                  
1733 C6A4 D578D1            lda     !T_GetKeyColValue+Y   
1734 C6A7 E51C              sta     R_KeyminderBufferCol0   
1735 C6A9 9E                inc     Y            
1736 C6AA D578D1            lda     !T_GetKeyColValue+Y   
1737 C6AD E51D              sta     R_KeyminderBufferCol1   
1738 C6AF 9E                inc     Y            
1739 C6B0 D578D1            lda     !T_GetKeyColValue+Y   
1740 C6B3 E51E              sta     R_KeyminderBufferCol2   
1741 C6B5 9E                inc     Y            
1742 C6B6 D578D1            lda     !T_GetKeyColValue+Y   
1743 C6B9 E51F              sta     R_KeyminderBufferCol3   
1744 C6BB 0121              set1    R_KeyFlag.B_KeyAction   
1745 C6BD 2121              set1    R_KeyFlag.B_IRKeyScan   
1746 C6BF 6F                ret                  
1747               
1748               L_IRBreackKey:                
1749 C6C0 E3321F            bbs     R_IRKeyTemp.7,L_AllIRBreackKey   
1750 C6C3 E132              set1    R_IRKeyTemp.7   
1751 C6C5 C532              lda     R_IRKeyTemp   
1752 C6C7 847F              and     #01111111B   
1753 C6C9 9F                tay                  
1754 C6CA D516D1            lda     !T_GetIRKeyValue+Y   
1755 C6CD 6480              or      #080H        
1756 C6CF E520              sta     R_KeyBuffer   
1757 C6D1 0121              set1    R_KeyFlag.B_KeyAction   
1758 C6D3 E4001C            ldm     R_KeyminderBufferCol0,#0   
1759 C6D6 E4001D            ldm     R_KeyminderBufferCol1,#0   
1760 C6D9 E4001E            ldm     R_KeyminderBufferCol2,#0   
1761 C6DC E4001F            ldm     R_KeyminderBufferCol3,#0   
1762 C6DF 3121              clr1    R_KeyFlag.B_IRKeyScan   
1763 C6E1 6F                ret                  
1764               
1765               L_AllIRBreackKey:             
1766               ;	lda	R_IRKeyBuffer
1767 C6E2 E532              sta     R_IRKeyTemp   
1768 C6E4 E4001C            ldm     R_KeyminderBufferCol0,#0   
1769 C6E7 E4001D            ldm     R_KeyminderBufferCol1,#0   
1770 C6EA E4001E            ldm     R_KeyminderBufferCol2,#0   
1771 C6ED E4001F            ldm     R_KeyminderBufferCol3,#0   
1772 C6F0 3121              clr1    R_KeyFlag.B_IRKeyScan   
1773 C6F2 1121              clr1    R_KeyFlag.B_KeyAction   
1774 C6F4 6F                ret                  
1775                        #ENDIF               
1776               
1777               ;;=====================================================================================
1778               ;;
1779               ;;Module Name:	F_MainKeyBoardScan
1780               ;;
1781               ;;Use:	A,R0~R5,X,Y
1782               ;;
1783               ;;=====================================================================================
1784               F_MainKeyBoardScan:           
1785 C6F5 C51C              lda     R_KeyminderBufferCol0   
1786 C6F7 651D              or      R_KeyminderBufferCol1   
1787 C6F9 651E              or      R_KeyminderBufferCol2   
1788 C6FB 651F              or      R_KeyminderBufferCol3   
1789 C6FD F003              beq     L_MainKeyBoardScan   
1790 C6FF 1BA4C7            jmp     L_MainKeyBoardBreack   
1791               
1792               L_MainKeyBoardScan:           
1793 C702 3B3AC8            call    F_GetADC1Value   
1794 C705 F01B              beq     L_MainADCKeyInput   
1795 C707 E509              sta     R5           
1796 C709 E40304            ldm     R0,#3        
1797               L_MainKeyBoardScan_Loop:      
1798 C70C 330CFD            bbc     R_Flag.B_128Hz,L_MainKeyBoardScan_Loop   
1799 C70F 310C              clr1    R_Flag.B_128Hz   
1800 C711 A904              dec     R0           
1801 C713 70F7              bne     L_MainKeyBoardScan_Loop   
1802 C715 3B3AC8            call    F_GetADC1Value   
1803 C718 4509              cmp     R5           
1804 C71A 7005              bne     L_MainIOKeyInput_Exit   
1805 C71C E520              sta     R_KeyBuffer   
1806 C71E 1B87C7            jmp     L_KeyPressed   
1807               L_MainIOKeyInput_Exit:        
1808 C721 6F                ret                  
1809               
1810               L_MainADCKeyInput:            
1811 C722 3B57C8            call    F_GetADC2Value   
1812 C725 F01A              beq     L_MainIOKeyInput   
1813 C727 E509              sta     R5           
1814 C729 E40304            ldm     R0,#3        
1815               L_ADCKeyBoardScan_Loop:       
1816 C72C 330CFD            bbc     R_Flag.B_128Hz,L_ADCKeyBoardScan_Loop   
1817 C72F 310C              clr1    R_Flag.B_128Hz   
1818 C731 A904              dec     R0           
1819 C733 70F7              bne     L_ADCKeyBoardScan_Loop   
1820 C735 3B57C8            call    F_GetADC2Value   
1821 C738 4509              cmp     R5           
1822 C73A 70E5              bne     L_MainIOKeyInput_Exit   
1823 C73C E520              sta     R_KeyBuffer   
1824 C73E 1B87C7            jmp     L_KeyPressed   
1825               
1826               L_MainIOKeyInput:             
1827 C741 E40004            ldm     R0,#0        
1828 C744 CBC550            ldcb    R_KeyIO0.B_KeyIO0   
1829 C747 EB0410            stc     R0.0         
1830 C74A C504              lda     R0           
1831 C74C F02F              beq     L_MainKeyBoardScan_Exit   ;;Illegal keyed in (inactive)
1832               
1833 C74E E40305            ldm     R1,#3        
1834               L_KeyDebounce_Loop:           
1835 C751 330CFD            bbc     R_Flag.B_128Hz,L_KeyDebounce_Loop   
1836 C754 310C              clr1    R_Flag.B_128Hz   
1837 C756 A905              dec     R1           
1838 C758 70F7              bne     L_KeyDebounce_Loop   
1839               
1840 C75A E40005            ldm     R1,#0        
1841 C75D CBC550            ldcb    R_KeyIO0.B_KeyIO0   
1842 C760 EB0510            stc     R1.0         
1843 C763 C505              lda     R1           
1844 C765 F016              beq     L_MainKeyBoardScan_Exit   ;;Illegal keyed in (inactive)
1845 C767 A504              eor     R0           
1846 C769 7012              bne     L_MainKeyBoardScan_Exit   
1847               
1848 C76B E40120            ldm     R_KeyBuffer,#1   
1849 C76E E40105            ldm     R1,#00000001B   ;;Check bit from bit0
1850               L_CaculateKeyLoop:            
1851 C771 C504              lda     R0           
1852 C773 8505              and     R1           ;;Exclusive-OR new and old sense data
1853 C775 7007              bne     L_IsMainIOKey   ;;Key depressed
1854 C777 8920              inc     R_KeyBuffer   ;;KeyBuffer = KeyBuffer + 1
1855 C779 0905              asl     R1           
1856 C77B 50F4              bcc     L_CaculateKeyLoop   
1857               L_MainKeyBoardScan_Exit:      
1858 C77D 6F                ret                  
1859               
1860               L_IsMainIOKey:                
1861 C77E C920              ldy     R_KeyBuffer   
1862 C780 D50BD2            lda     !T_IOKeyValueTable+Y   
1863 C783 F0F8              beq     L_MainKeyBoardScan_Exit   
1864 C785 E520              sta     R_KeyBuffer   
1865               L_KeyPressed:                 ;;Key depressed
1866 C787 0121              set1    R_KeyFlag.B_KeyAction   
1867 C789 3E04              ldy     #4           
1868 C78B C520              lda     R_KeyBuffer   
1869 C78D 5B                mul                  
1870 C78E 9F                tay                  
1871 C78F D578D1            lda     !T_GetKeyColValue+Y   
1872 C792 E51C              sta     R_KeyminderBufferCol0   
1873               ;	inc	Y
1874 C794 D579D1            lda     !(T_GetKeyColValue+1)+Y   
1875 C797 E51D              sta     R_KeyminderBufferCol1   
1876               ;	inc	Y
1877 C799 D57AD1            lda     !(T_GetKeyColValue+2)+Y   
1878 C79C E51E              sta     R_KeyminderBufferCol2   
1879               ;	inc	Y
1880 C79E D57BD1            lda     !(T_GetKeyColValue+3)+Y   
1881 C7A1 E51F              sta     R_KeyminderBufferCol3   
1882 C7A3 6F                ret                  
1883               
1884               ;;===================================================================
1885               L_MainKeyBoardBreack:         
1886 C7A4 E42004            ldm     R0,#32       ;总共键数
1887 C7A7 E40109            ldm     R5,#1        
1888 C7AA C51C              lda     R_KeyminderBufferCol0   
1889 C7AC E505              sta     R1           
1890 C7AE C51D              lda     R_KeyminderBufferCol1   
1891 C7B0 E506              sta     R2           
1892 C7B2 C51E              lda     R_KeyminderBufferCol2   
1893 C7B4 E507              sta     R3           
1894 C7B6 C51F              lda     R_KeyminderBufferCol3   
1895 C7B8 E508              sta     R4           
1896               L_MainKeyBoardBreack_Loop:    
1897 C7BA 4908              lsr     R4           
1898 C7BC 6907              ror     R3           
1899 C7BE 6906              ror     R2           
1900 C7C0 6905              ror     R1           
1901 C7C2 D007              bcs     L_CheckMainKeyBoardBreack   
1902 C7C4 8909              inc     R5           
1903 C7C6 A904              dec     R0           
1904 C7C8 70F0              bne     L_MainKeyBoardBreack_Loop   
1905               L_MainKeyBoardBreack_Exit:    
1906 C7CA 6F                ret                  
1907               
1908               L_CheckMainKeyBoardBreack:    
1909 C7CB 3B3AC8            call    F_GetADC1Value   
1910 C7CE 4509              cmp     R5           
1911 C7D0 F0F8              beq     L_MainKeyBoardBreack_Exit   
1912 C7D2 3B57C8            call    F_GetADC2Value   
1913 C7D5 4509              cmp     R5           
1914 C7D7 F0F1              beq     L_MainKeyBoardBreack_Exit   
1915 C7D9 3B16C8            call    F_IOKeyBreack   
1916 C7DC 4509              cmp     R5           
1917 C7DE F0EA              beq     L_MainKeyBoardBreack_Exit   
1918               
1919 C7E0 E40304            ldm     R0,#3        
1920               L_CheckMainKeyBoardBreack_Lp:   
1921 C7E3 330CFD            bbc     R_Flag.B_128Hz,L_CheckMainKeyBoardBreack_Lp   
1922 C7E6 310C              clr1    R_Flag.B_128Hz   
1923 C7E8 A904              dec     R0           
1924 C7EA 70F7              bne     L_CheckMainKeyBoardBreack_Lp   
1925               
1926 C7EC 3B3AC8            call    F_GetADC1Value   
1927 C7EF 4509              cmp     R5           
1928 C7F1 F0D7              beq     L_MainKeyBoardBreack_Exit   
1929 C7F3 3B57C8            call    F_GetADC2Value   
1930 C7F6 4509              cmp     R5           
1931 C7F8 F0D0              beq     L_MainKeyBoardBreack_Exit   
1932 C7FA 3B16C8            call    F_IOKeyBreack   
1933 C7FD 4509              cmp     R5           
1934 C7FF F0C9              beq     L_MainKeyBoardBreack_Exit   
1935 C801 E4001C            ldm     R_KeyminderBufferCol0,#0   
1936 C804 E4001D            ldm     R_KeyminderBufferCol1,#0   
1937 C807 E4001E            ldm     R_KeyminderBufferCol2,#0   
1938 C80A E4001F            ldm     R_KeyminderBufferCol3,#0   
1939 C80D C509              lda     R5           
1940 C80F E520              sta     R_KeyBuffer   
1941 C811 E120              set1    R_KeyBuffer.7   
1942 C813 0121              set1    R_KeyFlag.B_KeyAction   
1943 C815 6F                ret                  
1944               
1945               ;;========================================================================
1946               ;;
1947               ;;Module Name:	F_IOKeyBreack
1948               ;;
1949               ;;========================================================================
1950               F_IOKeyBreack:                
1951 C816 E40004            ldm     R0,#0        
1952 C819 CBC550            ldcb    R_KeyIO0.B_KeyIO0   
1953 C81C EB0410            stc     R0.0         
1954               
1955 C81F E40105            ldm     R1,#00000001B   
1956 C822 E40106            ldm     R2,#1        
1957               L_IOKeyBreack_Loop:           
1958 C825 C505              lda     R1           
1959 C827 8504              and     R0           
1960 C829 7009              bne     L_IOKeyBreack   
1961 C82B 8906              inc     R2           
1962 C82D 0905              asl     R1           
1963 C82F 50F4              bcc     L_IOKeyBreack_Loop   
1964 C831 E40006            ldm     R2,#0        
1965               L_IOKeyBreack:                
1966 C834 C906              ldy     R2           
1967 C836 D50BD2            lda     !T_IOKeyValueTable+Y   
1968               L_IOKeyBreack_Exit:           
1969 C839 6F                ret                  
1970               
1971               ;;========================================================================
1972               ;;
1973               ;;Module Name:	F_GetADC1Value
1974               ;;
1975               ;;Input:				Non
1976               ;;
1977               ;;Output:				A
1978               ;;
1979               ;;Use:					A,X,Y,R0,R1
1980               ;;
1981               ;;========================================================================
1982               F_GetADC1Value:               
1983 C83A C400              lda     #C_ADC_KeyChannel   
1984 C83C 3B07C2            call    F_GetADCValue   
1985 C83F 3E00              ldy     #0           
1986               L_GetADC1Value_Loop:          
1987 C841 A0                setc                 
1988 C842 C504              lda     R0           
1989 C844 35FCD1            sbc     !T_ADCValueTable+Y   
1990 C847 9E                inc     Y            
1991 C848 C505              lda     R1           
1992 C84A 35FCD1            sbc     !T_ADCValueTable+Y   
1993 C84D 9E                inc     Y            
1994 C84E D0F1              bcs     L_GetADC1Value_Loop   
1995 C850 BF                tya                  
1996 C851 48                lsr     A            
1997 C852 9F                tay                  
1998 C853 D500D2            lda     !T_ADCKeyValueTable+Y   
1999               L_GetADC1Value_Exit:          
2000 C856 6F                ret                  
2001               
2002               ;;========================================================================
2003               ;;
2004               ;;Module Name:	F_GetADC2Value
2005               ;;
2006               ;;Input:				Non
2007               ;;
2008               ;;Output:				A
2009               ;;
2010               ;;Use:					A,X,Y,R0,R1
2011               ;;
2012               ;;========================================================================
2013               F_GetADC2Value:               
2014 C857 C403              lda     #C_ADC_Key1Channel   
2015 C859 3B07C2            call    F_GetADCValue   
2016 C85C 3E00              ldy     #0           
2017               L_GetADC2Value_Loop:          
2018 C85E A0                setc                 
2019 C85F C504              lda     R0           
2020 C861 3503D2            sbc     !T_ADC2ValueTable+Y   
2021 C864 9E                inc     Y            
2022 C865 C505              lda     R1           
2023 C867 3503D2            sbc     !T_ADC2ValueTable+Y   
2024 C86A 9E                inc     Y            
2025 C86B D0F1              bcs     L_GetADC2Value_Loop   
2026 C86D BF                tya                  
2027 C86E 48                lsr     A            
2028 C86F 9F                tay                  
2029 C870 D507D2            lda     !T_ADC2KeyValueTable+Y   
2030               L_GetADC2Value_Exit:          
2031 C873 6F                ret                  
2032               ;
2033               ;
2034               ;;
2035               ;;
2036                        include  at24c02.asm   
2037               ;;===========================================================
2038               ;;
2039               ;;Module Name:	F_StoreMode
2040               ;;
2041               ;;Input:				R_ModeTemp
2042               ;;
2043               ;;Output:				Non
2044               ;;
2045               ;;Use:					A,R0,R1,R2,X,Y
2046               ;;
2047               ;;===========================================================
2048               F_StoreMode:                  
2049                        #IF     EEPROM       
2050                        ldx     R_ModeTemp   
2051                        ldy     #R_ModeTemp_F   
2052                        call    F_WriteDataTo24C02   
2053                        #ENDIF               
2054               L_StoreMode_Exit:             
2055 C874 6F                ret                  
2056               
2057               ;;===========================================================
2058               ;;
2059               ;;Module Name:	F_StoreFlag
2060               ;;
2061               ;;Input:				R_Flag
2062               ;;
2063               ;;Output:				Non
2064               ;;
2065               ;;Use:					A,R0,R1,R2,X,Y
2066               ;;
2067               ;;===========================================================
2068               F_StoreFlag:                  
2069                        #IF     EEPROM       
2070                        ldx     R_Flag       
2071                        ldy     #R_Flag_F    
2072                        call    F_WriteDataTo24C02   
2073                        #ENDIF               
2074               L_StoreFlag_Exit:             
2075 C875 6F                ret                  
2076               
2077               ;;===========================================================
2078               ;;
2079               ;;Module Name:	F_StoreVolume
2080               ;;
2081               ;;Input:				R_VolumeTemp
2082               ;;
2083               ;;Output:				Non
2084               ;;
2085               ;;Use:					A,R0,R1,R2,X,Y
2086               ;;
2087               ;;===========================================================
2088               F_StoreVolume:                
2089                        #IF     EEPROM       
2090                        ldx     R_VolumeTemp   
2091                        ldy     #R_VolumeTemp_F   
2092                        call    F_WriteDataTo24C02   
2093                        #ENDIF               
2094               L_StoreVolume_Exit:           
2095 C876 6F                ret                  
2096               
2097               ;;===========================================================
2098               ;;
2099               ;;Module Name:	F_StoreBass
2100               ;;
2101               ;;Input:				R_Bass
2102               ;;
2103               ;;Output:				Non
2104               ;;
2105               ;;Use:					A,R0,R1,R2,X,Y
2106               ;;
2107               ;;===========================================================
2108               F_StoreBass:                  
2109                        #IF     EEPROM       
2110                        ldx     R_Bass       
2111                        ldy     #R_Bass_F    
2112                        call    F_WriteDataTo24C02   
2113                        #ENDIF               
2114               L_StoreBass_Exit:             
2115 C877 6F                ret                  
2116               
2117               ;;===========================================================
2118               ;;
2119               ;;Module Name:	F_StoreTreble
2120               ;;
2121               ;;Input:				R_Treble
2122               ;;
2123               ;;Output:				Non
2124               ;;
2125               ;;Use:					A,R0,R1,R2,X,Y
2126               ;;
2127               ;;===========================================================
2128               F_StoreTreble:                
2129                        #IF     EEPROM       
2130                        ldx     R_Treble     
2131                        ldy     #R_Treble_F   
2132                        call    F_WriteDataTo24C02   
2133                        #ENDIF               
2134               L_StoreTreble_Exit:           
2135 C878 6F                ret                  
2136               
2137               ;;========================================================================================================
2138               ;;
2139               ;;Module Name:	F_Initial24C02
2140               ;;
2141               ;;Input:			
2142               ;;
2143               ;;Output:			
2144               ;;
2145               ;;Use:					A,R0,R1,R2,X,Y
2146               ;;
2147               ;;========================================================================================================
2148               F_Initial24C02:               
2149                        #IF     EEPROM       
2150                        ldy     #R_Flag_F    
2151                        call    F_ReadDataFrom24C02   
2152                        and     #10000000B   
2153                        sta     R_Flag       
2154                        ldy     #R_ModeTemp_F   
2155                        call    F_ReadDataFrom24C02   
2156                        sta     R_ModeTemp   
2157                        cmp     #C_MinMode   
2158                        bcc     L_Initial24C02   
2159                        cmp     #(C_MaxMode+1)   
2160                        bcs     L_Initial24C02   
2161                        ldy     #R_VolumeTemp_F   
2162                        call    F_ReadDataFrom24C02   
2163                        sta     R_VolumeTemp   
2164                        call    F_CheckBCDCode   
2165                        bcs     L_Initial24C02   
2166                        cmp     #(C_MaxVolume+001H)   
2167                        bcs     L_Initial24C02   
2168                        ldy     #R_Bass_F    
2169                        call    F_ReadDataFrom24C02   
2170                        sta     R_Bass       
2171                        cmp     #(C_MaxBass+1)   
2172                        bcs     L_Initial24C02   
2173                        ldy     #R_Treble_F   
2174                        call    F_ReadDataFrom24C02   
2175                        sta     R_Treble     
2176                        cmp     #(C_MaxTreble+1)   
2177                        bcs     L_Initial24C02   
2178                        jmp     L_Initial24C02_Exit   
2179                                             
2180                        L_Initial24C02:               
2181                        ldx     #00000000B   
2182                        stx     R_Flag       
2183                        ldy     #R_Flag_F    
2184                        call    F_WriteDataTo24C02   
2185                        ldx     #C_InitialMode   
2186                        stx     R_ModeTemp   
2187                        ldy     #R_ModeTemp_F   
2188                        call    F_WriteDataTo24C02   
2189                        ldx     #C_InitialVolume   
2190                        stx     R_VolumeTemp   
2191                        ldy     #R_VolumeTemp_F   
2192                        call    F_WriteDataTo24C02   
2193                        ldx     #C_InitialBass   
2194                        stx     R_Bass       
2195                        ldy     #R_Bass_F    
2196                        call    F_WriteDataTo24C02   
2197                        ldx     #C_InitialTreble   
2198                        stx     R_Treble     
2199                        ldy     #R_Treble_F   
2200                        call    F_WriteDataTo24C02   
2201                                             
2202                                             ;;========================================================================================================
2203                        #ELSE                
2204 C879 E4000C            ldm     R_Flag,#00000000B   
2205 C87C E4030F            ldm     R_ModeTemp,#C_InitialMode   
2206 C87F E43013            ldm     R_VolumeTemp,#C_InitialVolume   
2207 C882 E40516            ldm     R_Bass,#C_InitialBass   
2208 C885 E40518            ldm     R_Treble,#C_InitialTreble   
2209                        #ENDIF               
2210               L_Initial24C02_Exit:          
2211 C888 6F                ret                  
2212               
2213                        #IF     EEPROM       
2214                                             ;;================================================================================================================
2215                                             ;;
2216                                             ;;Module Name:	F_WriteDataTo24C02
2217                                             ;;
2218                                             ;;Input:				X(data),Y(address)
2219                                             ;;
2220                                             ;;Output:				Non
2221                                             ;;
2222                                             ;;Use:					A,R0,R1,R2,X,Y
2223                                             ;;
2224                                             ;;================================================================================================================
2225                        F_WriteDataTo24C02:               
2226                        call    L_WriteDataTo24C02   
2227                        bbc     R2.0,L_WriteDataTo24C02_Exit   
2228                                             
2229                        L_WriteDataTo24C02:               
2230                        ldm     R2,#0        
2231                        call    F_EEPROM24C02Start   
2232                        lda     #10100000B   ;ctrl
2233                        call    F_EEPROM24C02WriteByte   
2234                        call    F_EEPROM24C02ACK   
2235                        or      R2           
2236                        sta     R2           
2237                        tya                  ;addr
2238                        call    F_EEPROM24C02WriteByte   
2239                        call    F_EEPROM24C02ACK   
2240                        or      R2           
2241                        sta     R2           
2242                        txa                  ;data
2243                        call    F_EEPROM24C02WriteByte   
2244                        call    F_EEPROM24C02ACK   
2245                        or      R2           
2246                        sta     R2           
2247                        call    F_EEPROM24C02Stop   
2248                        lda     #12          
2249                        call    F_Delay1ms   
2250                        L_WriteDataTo24C02_Exit:               
2251                        ret                  
2252                                             
2253                                             ;;================================================================================================================
2254                                             ;;
2255                                             ;;Module Name:	F_ReadDataFrom24C02
2256                                             ;;
2257                                             ;;Input:				Y(被读取地址)
2258                                             ;;
2259                                             ;;Output:				A
2260                                             ;;
2261                                             ;;Use:					A,R0,R1,R2,Y
2262                                             ;;
2263                                             ;;================================================================================================================
2264                        F_ReadDataFrom24C02:               
2265                        call    L_ReadDataFrom24C02   
2266                        bbc     R2.0,L_ReadDataFrom24C02_Exit   
2267                                             
2268                        L_ReadDataFrom24C02:               
2269                        ldm     R2,#0        
2270                        call    F_EEPROM24C02Start   
2271                        lda     #10100000B   ;ctrl
2272                        call    F_EEPROM24C02WriteByte   
2273                        call    F_EEPROM24C02ACK   
2274                        or      R2           
2275                        sta     R2           
2276                        tya                  ;addr
2277                        call    F_EEPROM24C02WriteByte   
2278                        call    F_EEPROM24C02ACK   
2279                        or      R2           
2280                        sta     R2           
2281                                             
2282                        clr1    R_24C02SDAO.B_24C02SDAO   
2283                        call    F_DelayAT24C02   
2284                        set1    R_24C02SCL.B_24C02SCL   
2285                        call    F_DelayAT24C02   
2286                        set1    R_24C02SDAO.B_24C02SDAO   
2287                        call    F_DelayAT24C02   
2288                        call    F_DelayAT24C02   
2289                        call    F_EEPROM24C02Start   
2290                        lda     #10100001B   ;ctrl
2291                        call    F_EEPROM24C02WriteByte   
2292                        lda     R_24C02DAI_O   
2293                        and     #C_24C02DAIOMask   
2294                        or      #C_24C02DAIOInput   
2295                        sta     R_24C02DAI_O   
2296                        call    F_DelayAT24C02   
2297                        set1    R_24C02SCL.B_24C02SCL   
2298                        call    F_DelayAT24C02   
2299                        call    F_DelayAT24C02   
2300                        lda     #0           
2301                        bbc     R_24C02SDAI.B_24C02SDAI,L_ReadDataFrom24C02_ACK   
2302                        lda     #1           
2303                        L_ReadDataFrom24C02_ACK:               
2304                        call    F_DelayAT24C02   
2305                        clr1    R_24C02SCL.B_24C02SCL   
2306                        call    F_DelayAT24C02   
2307                        or      R2           
2308                        sta     R2           
2309                                             
2310                        call    F_EEPROM24C02ReadByte   ;data
2311                        push    A            
2312                        call    F_NonEEPromACK   
2313                        call    F_EEPROM24C02Stop   
2314                        call    F_DelayAT24C02   
2315                        call    F_DelayAT24C02   
2316                        call    F_DelayAT24C02   
2317                        pop     A            
2318                        L_ReadDataFrom24C02_Exit:               
2319                        ret                  
2320                                             
2321                                             ;;================================================================================================================
2322                                             ;;
2323                                             ;;Module Name:	F_EEPROM24C02Start
2324                                             ;;
2325                                             ;;================================================================================================================
2326                        F_EEPROM24C02Start:               
2327                        clr1    R_24C02SDAO.B_24C02SDAO   
2328                        call    F_DelayAT24C02   
2329                        clr1    R_24C02SCL.B_24C02SCL   
2330                        call    F_DelayAT24C02   
2331                        call    F_DelayAT24C02   
2332                        L_EEPROM24C02Start_Exit:               
2333                        ret                  
2334                                             
2335                                             ;;================================================================================================================
2336                                             ;;
2337                                             ;;Module Name:	F_EEPROM24C02Stop
2338                                             ;;
2339                                             ;;================================================================================================================
2340                        F_EEPROM24C02Stop:               
2341                        clr1    R_24C02SDAO.B_24C02SDAO   
2342                        call    F_DelayAT24C02   
2343                        set1    R_24C02SCL.B_24C02SCL   
2344                        call    F_DelayAT24C02   
2345                        set1    R_24C02SDAO.B_24C02SDAO   
2346                        call    F_DelayAT24C02   
2347                        L_EEPROM24C02Stop_Exit:               
2348                        ret                  
2349                                             
2350                                             ;;================================================================================================================
2351                                             ;;
2352                                             ;;Module Name:	F_EEPROM24C02ACK
2353                                             ;;
2354                                             ;;Input:				Non
2355                                             ;;
2356                                             ;;Output:				A
2357                                             ;;
2358                                             ;;Describe:			EEPROM-->CPU
2359                                             ;;
2360                                             ;;================================================================================================================
2361                        F_EEPROM24C02ACK:               
2362                        lda     R_24C02DAI_O   
2363                        and     #C_24C02DAIOMask   
2364                        or      #C_24C02DAIOInput   
2365                        sta     R_24C02DAI_O   
2366                        set1    R_24C02SCL.B_24C02SCL   
2367                        call    F_DelayAT24C02   
2368                        call    F_DelayAT24C02   
2369                        lda     #0           
2370                        bbc     R_24C02SDAI.B_24C02SDAI,L_EEPROM24C02ACK   
2371                        lda     #1           
2372                        L_EEPROM24C02ACK:               
2373                        clr1    R_24C02SCL.B_24C02SCL   
2374                        push    A            
2375                        lda     R_24C02DAI_O   
2376                        and     #C_24C02DAIOMask   
2377                        or      #C_24C02DAIOOutput   
2378                        sta     R_24C02DAI_O   
2379                        pop     A            
2380                        call    F_DelayAT24C02   
2381                        L_EEPROM24C02ACK_Exit:               
2382                        ret                  
2383                                             
2384                                             ;;=================================================================================================
2385                                             ;;
2386                                             ;;Module Name:	F_NonEEPromACK
2387                                             ;;
2388                                             ;;=================================================================================================
2389                        F_NonEEPromACK:               
2390                        set1    R_24C02SCL.B_24C02SCL   
2391                        call    F_DelayAT24C02   
2392                        call    F_DelayAT24C02   
2393                        clr1    R_24C02SCL.B_24C02SCL   
2394                        lda     R_24C02DAI_O   
2395                        and     #C_24C02DAIOMask   
2396                        or      #C_24C02DAIOOutput   
2397                        sta     R_24C02DAI_O   
2398                        call    F_DelayAT24C02   
2399                        L_NonEEPromACK_Exit:               
2400                        ret                  
2401                                             
2402                                             ;;================================================================================================================
2403                                             ;;
2404                                             ;;Module Name:	F_EEPROM24C02WriteByte
2405                                             ;;
2406                                             ;;Input:	A
2407                                             ;;
2408                                             ;;Use:		R0,R1
2409                                             ;;
2410                                             ;;================================================================================================================
2411                        F_EEPROM24C02WriteByte:               
2412                        sta     R1           
2413                        ldm     R0,#8        
2414                        L_EEPROM24C02WriteByte_Loop:               
2415                        asl     R1           
2416                        bcs     L_EEPROM24C02WriteByte_One   
2417                        L_EEPROM24C02WriteByte_Zero:               
2418                        clr1    R_24C02SDAO.B_24C02SDAO   
2419                        jmp     L_EEPROM24C02WriteByte   
2420                        L_EEPROM24C02WriteByte_One:               
2421                        set1    R_24C02SDAO.B_24C02SDAO   
2422                        L_EEPROM24C02WriteByte:               
2423                        call    F_DelayAT24C02   
2424                        set1    R_24C02SCL.B_24C02SCL   
2425                        call    F_DelayAT24C02   
2426                        clr1    R_24C02SCL.B_24C02SCL   
2427                        call    F_DelayAT24C02   
2428                        dec     R0           
2429                        bne     L_EEPROM24C02WriteByte_Loop   
2430                        call    F_DelayAT24C02   
2431                        call    F_DelayAT24C02   
2432                        L_EEPROM24C02WriteByte_Exit:               
2433                        ret                  
2434                                             
2435                                             ;;================================================================================================================
2436                                             ;;
2437                                             ;;Module Name:	F_EEPROM24C02ReadByte
2438                                             ;;
2439                                             ;;Output:	A
2440                                             ;;
2441                                             ;;Input:	Non
2442                                             ;;
2443                                             ;;Use:		R0,R1
2444                                             ;;
2445                                             ;;================================================================================================================
2446                        F_EEPROM24C02ReadByte:               
2447                        ldm     R0,#8        
2448                        L_EEPROM24C02ReadByte_Loop:               
2449                        set1    R_24C02SCL.B_24C02SCL   
2450                        call    F_DelayAT24C02   
2451                        call    F_DelayAT24C02   
2452                        clrc                 
2453                        bbc     R_24C02SDAI.B_24C02SDAI,L_EEPROM24C02ReadByte   
2454                        setc                 
2455                        L_EEPROM24C02ReadByte:               
2456                        rol     R1           
2457                        clr1    R_24C02SCL.B_24C02SCL   
2458                        call    F_DelayAT24C02   
2459                        dec     R0           
2460                        bne     L_EEPROM24C02ReadByte_Loop   
2461                        lda     R1           
2462                        call    F_DelayAT24C02   
2463                        call    F_DelayAT24C02   
2464                        L_EEPROM24C02ReadByte_Exit:               
2465                        ret                  
2466                                             
2467                                             ;;==============================================================================================
2468                                             ;;
2469                                             ;;Module Name:	F_DelayAT24C02
2470                                             ;;
2471                                             ;;==============================================================================================
2472                        F_DelayAT24C02:               
2473                        nop                  
2474                        nop                  
2475                        nop                  
2476                        nop                  
2477                        nop                  
2478                        L_DelayAT24C02_Exit:               
2479                        ret                  
2480                        #ENDIF               
2481               ;
2482               ;
2483               ;;
2484               ;;
2485                        include  time.asm     
2486               ;;=====================================================================================
2487               ;;
2488               ;;Module Name:	F_CheckTime
2489               ;;
2490               ;;=====================================================================================
2491               F_CheckTime:                  
2492 C889 3B97C8            call    F_CheckKeyTime   
2493               
2494 C88C C511              lda     R_HalfSecond   
2495 C88E 4402              cmp     #2           
2496 C890 5004              bcc     L_CheckTime_Exit   
2497 C892 A911              dec     R_HalfSecond   
2498 C894 A911              dec     R_HalfSecond   
2499               L_CheckTime_Exit:             
2500 C896 6F                ret                  
2501               
2502               ;;===================================================================================
2503               ;;
2504               ;;Module Name:	F_CheckKeyTime
2505               ;;
2506               ;;==================================================================================
2507               F_CheckKeyTime:               
2508 C897 930C0D            bbc     R_Flag.B_2HzKey,L_CheckKeyTime_Exit   
2509 C89A 910C              clr1    R_Flag.B_2HzKey   
2510 C89C C522              lda     R_KeyTime    
2511 C89E F007              beq     L_CheckKeyTime_Exit   
2512 C8A0 A922              dec     R_KeyTime    
2513 C8A2 7003              bne     L_CheckKeyTime_Exit   
2514 C8A4 E31D01            bbs     R_KeyminderBufferCol1.7,L_PowerKey3s   
2515               L_CheckKeyTime_Exit:          
2516 C8A7 6F                ret                  
2517               
2518               ;;========================================================
2519               L_PowerKey3s:                 
2520 C8A8 1B1EC4            jmp     L_PowerKey   
2521               
2522               ;;===========================================================================
2523               ;;
2524               ;;Module Name:	F_CheckBackNormalTime
2525               ;;
2526               ;;===========================================================================
2527               F_CheckBackNormalTime:        
2528 C8AB C510              lda     R_SetTimeFlag   
2529 C8AD F015              beq     L_CheckBackNormalTime   
2530 C8AF C51A              lda     R_BackNormalTimeLo   
2531 C8B1 651B              or      R_BackNormalTimeHi   
2532 C8B3 F00F              beq     L_CheckBackNormalTime   
2533 C8B5 A0                setc                 
2534 C8B6 C51A              lda     R_BackNormalTimeLo   
2535 C8B8 2401              sbc     #01          
2536 C8BA E51A              sta     R_BackNormalTimeLo   
2537 C8BC C51B              lda     R_BackNormalTimeHi   
2538 C8BE 2400              sbc     #00          
2539 C8C0 E51B              sta     R_BackNormalTimeHi   
2540 C8C2 D010              bcs     L_CheckBackNormalTime_Exit   
2541               L_CheckBackNormalTime:        
2542 C8C4 E4001A            ldm     R_BackNormalTimeLo,#0   
2543 C8C7 E4001B            ldm     R_BackNormalTimeHi,#0   
2544 C8CA C510              lda     R_SetTimeFlag   
2545 C8CC F006              beq     L_CheckBackNormalTime_Exit   
2546 C8CE E40010            ldm     R_SetTimeFlag,#C_NonSet   
2547 C8D1 3B6AD0            call    F_DisplayLed   
2548               L_CheckBackNormalTime_Exit:   
2549 C8D4 6F                ret                  
2550               
2551               ;;===========================================================================
2552               ;;
2553               ;;Module Name:	F_SetBackNormalTime
2554               ;;
2555               ;;===========================================================================
2556               F_SetBackNormalTime:          
2557 C8D5 E4401A            ldm     R_BackNormalTimeLo,#040H   ;5s
2558 C8D8 E4011B            ldm     R_BackNormalTimeHi,#001H   
2559               L_SetBackNormalTime_Exit:     
2560 C8DB 6F                ret                  
2561               ;
2562               ;
2563               ;;
2564               ;;
2565                        include  power.asm    
2566               ;;========================================================================
2567               ;;
2568               ;;Module Name:	F_CheckAuxSleep
2569               ;;
2570               ;;========================================================================
2571               F_CheckAuxSleep:              
2572                        #IF     AuxSleep     
2573 C8DC C50E              lda     R_MainMode   
2574 C8DE 4402              cmp     #C_AuxMode   
2575 C8E0 7059              bne     L_CheckAuxSleep_Over   
2576 C8E2 F30D56            bbc     R_Flag1.B_ERPFlag,L_CheckAuxSleep_Over   
2577 C8E5 C525              lda     R_AuxSleepMinute   
2578 C8E7 4402              cmp     #C_AuxSleepTime   
2579 C8E9 D01E              bcs     L_CheckAuxSleep   
2580 C8EB 8923              inc     R_AuxSleepBaseTime   
2581 C8ED C523              lda     R_AuxSleepBaseTime   
2582 C8EF 4480              cmp     #128         
2583 C8F1 502C              bcc     L_CheckAuxSignal   
2584 C8F3 E40023            ldm     R_AuxSleepBaseTime,#0   
2585 C8F6 8924              inc     R_AuxSleepSecond   
2586 C8F8 C524              lda     R_AuxSleepSecond   
2587 C8FA 443C              cmp     #60          
2588 C8FC 5021              bcc     L_CheckAuxSignal   
2589 C8FE E40024            ldm     R_AuxSleepSecond,#0   
2590 C901 8925              inc     R_AuxSleepMinute   
2591 C903 C525              lda     R_AuxSleepMinute   
2592 C905 4402              cmp     #C_AuxSleepTime   
2593 C907 5016              bcc     L_CheckAuxSignal   
2594               L_CheckAuxSleep:              
2595 C909 C51C              lda     R_KeyminderBufferCol0   
2596 C90B 651D              or      R_KeyminderBufferCol1   
2597 C90D 651E              or      R_KeyminderBufferCol2   
2598 C90F 651F              or      R_KeyminderBufferCol3   
2599 C911 700C              bne     L_CheckAuxSignal   
2600 C913 E40025            ldm     R_AuxSleepMinute,#0   
2601 C916 E40026            ldm     R_AuxSleepCounter,#0   
2602 C919 E40027            ldm     R_AuxSleepCounterTime,#0   
2603 C91C 1B22C4            jmp     L_PowerOffKey   
2604               
2605               L_CheckAuxSignal:             
2606 C91F 8927              inc     R_AuxSleepCounterTime   
2607 C921 C527              lda     R_AuxSleepCounterTime   
2608 C923 44FA              cmp     #250         
2609 C925 500C              bcc     L_CheckAuxSignal_L   
2610 C927 E40027            ldm     R_AuxSleepCounterTime,#0   
2611 C92A C526              lda     R_AuxSleepCounter   
2612 C92C 441E              cmp     #030         
2613 C92E D00B              bcs     L_CheckAuxSleep_Over   
2614 C930 E40026            ldm     R_AuxSleepCounter,#0   
2615               
2616               L_CheckAuxSignal_L:           
2617 C933 D30D11            bbc     R_Flag1.B_AudioIn,L_CheckAuxSleep_Exit   
2618 C936 8926              inc     R_AuxSleepCounter   
2619 C938 1B47C9            jmp     L_CheckAuxSleep_Exit   
2620               
2621               L_CheckAuxSleep_Over:         
2622               F_InitialAuxSleep:            
2623 C93B C400              lda     #0           
2624 C93D E523              sta     R_AuxSleepBaseTime   
2625 C93F E524              sta     R_AuxSleepSecond   
2626 C941 E525              sta     R_AuxSleepMinute   
2627 C943 E526              sta     R_AuxSleepCounter   
2628 C945 E527              sta     R_AuxSleepCounterTime   
2629                        #ENDIF               
2630               L_CheckAuxSleep_Exit:         
2631 C947 6F                ret                  
2632               
2633               ;;=================================================================================
2634               ;;
2635               ;;Module Name:	F_CheckOpticalSleep
2636               ;;
2637               ;;=================================================================================
2638               F_CheckOpticalSleep:          
2639                        #IF     OpticalSleep   
2640 C948 C50E              lda     R_MainMode   
2641 C94A 4403              cmp     #C_OpticalMode   
2642 C94C 7059              bne     L_CheckOpticalSleep_Over   
2643 C94E F30D56            bbc     R_Flag1.B_ERPFlag,L_CheckOpticalSleep_Over   
2644 C951 C52A              lda     R_OpticalSleepMinute   
2645 C953 4402              cmp     #C_OpticalSleepTime   
2646 C955 D01E              bcs     L_CheckOpticalSleep   
2647 C957 8928              inc     R_OpticalSleepBaseTime   
2648 C959 C528              lda     R_OpticalSleepBaseTime   
2649 C95B 4480              cmp     #128         
2650 C95D 502C              bcc     L_CheckOpticalSignal   
2651 C95F E40028            ldm     R_OpticalSleepBaseTime,#0   
2652 C962 8929              inc     R_OpticalSleepSecond   
2653 C964 C529              lda     R_OpticalSleepSecond   
2654 C966 443C              cmp     #60          
2655 C968 5021              bcc     L_CheckOpticalSignal   
2656 C96A E40029            ldm     R_OpticalSleepSecond,#0   
2657 C96D 892A              inc     R_OpticalSleepMinute   
2658 C96F C52A              lda     R_OpticalSleepMinute   
2659 C971 4402              cmp     #C_OpticalSleepTime   
2660 C973 5016              bcc     L_CheckOpticalSignal   
2661               L_CheckOpticalSleep:          
2662 C975 C51C              lda     R_KeyminderBufferCol0   
2663 C977 651D              or      R_KeyminderBufferCol1   
2664 C979 651E              or      R_KeyminderBufferCol2   
2665 C97B 651F              or      R_KeyminderBufferCol3   
2666 C97D 700C              bne     L_CheckOpticalSignal   
2667 C97F E4002A            ldm     R_OpticalSleepMinute,#0   
2668 C982 E4002B            ldm     R_OpticalSleepCounter,#0   
2669 C985 E4002C            ldm     R_OpticalSleepCounterTime,#0   
2670 C988 1B22C4            jmp     L_PowerOffKey   
2671               
2672               L_CheckOpticalSignal:         
2673 C98B 892C              inc     R_OpticalSleepCounterTime   
2674 C98D C52C              lda     R_OpticalSleepCounterTime   
2675 C98F 44FA              cmp     #250         
2676 C991 500C              bcc     L_CheckOpticalSignal_L   
2677 C993 E4002C            ldm     R_OpticalSleepCounterTime,#0   
2678 C996 C52B              lda     R_OpticalSleepCounter   
2679 C998 441E              cmp     #030         
2680 C99A D00B              bcs     L_CheckOpticalSleep_Over   
2681 C99C E4002B            ldm     R_OpticalSleepCounter,#0   
2682               
2683               L_CheckOpticalSignal_L:       
2684 C99F D30D11            bbc     R_Flag1.B_AudioIn,L_CheckOpticalSleep_Exit   
2685 C9A2 892B              inc     R_OpticalSleepCounter   
2686 C9A4 1BB3C9            jmp     L_CheckOpticalSleep_Exit   
2687               
2688               L_CheckOpticalSleep_Over:     
2689               F_InitialOpticalSleep:        
2690 C9A7 C400              lda     #0           
2691 C9A9 E528              sta     R_OpticalSleepBaseTime   
2692 C9AB E529              sta     R_OpticalSleepSecond   
2693 C9AD E52A              sta     R_OpticalSleepMinute   
2694 C9AF E52B              sta     R_OpticalSleepCounter   
2695 C9B1 E52C              sta     R_OpticalSleepCounterTime   
2696                        #ENDIF               
2697               L_CheckOpticalSleep_Exit:     
2698 C9B3 6F                ret                  
2699               
2700               ;;=================================================================================
2701               ;;
2702               ;;Module Name:	F_CheckBTSleep
2703               ;;
2704               ;;=================================================================================
2705               F_CheckBTSleep:               
2706                        #IF     BTSleep      
2707                        lda     R_MainMode   
2708                        cmp     #C_BTMode    
2709                        bne     L_CheckBTSleep_Over   
2710                        bbc     R_Flag1.B_ERPFlag,L_CheckBTSleep_Over   
2711                        lda     R_BTSleepMinute   
2712                        cmp     #C_BTSleepTime   
2713                        bcs     L_CheckBTSleep   
2714                        inc     R_BTSleepBaseTime   
2715                        lda     R_BTSleepBaseTime   
2716                        cmp     #128         
2717                        bcc     L_CheckBTSignal   
2718                        ldm     R_BTSleepBaseTime,#0   
2719                        inc     R_BTSleepSecond   
2720                        lda     R_BTSleepSecond   
2721                        cmp     #60          
2722                        bcc     L_CheckBTSignal   
2723                        ldm     R_BTSleepSecond,#0   
2724                        inc     R_BTSleepMinute   
2725                        lda     R_BTSleepMinute   
2726                        cmp     #C_BTSleepTime   
2727                        bcc     L_CheckBTSignal   
2728                        L_CheckBTSleep:               
2729                        lda     R_KeyminderBufferCol0   
2730                        or      R_KeyminderBufferCol1   
2731                        or      R_KeyminderBufferCol2   
2732                        or      R_KeyminderBufferCol3   
2733                        bne     L_CheckBTSignal   
2734                        ldm     R_BTSleepMinute,#0   
2735                        ldm     R_BTSleepCounter,#0   
2736                        ldm     R_BTSleepCounterTime,#0   
2737                        jmp     L_PowerOffKey   
2738                                             
2739                        L_CheckBTSignal:               
2740                        inc     R_BTSleepCounterTime   
2741                        lda     R_BTSleepCounterTime   
2742                        cmp     #250         
2743                        bcc     L_CheckBTSignal_LR   
2744                        ldm     R_BTSleepCounterTime,#0   
2745                        lda     R_BTSleepCounter   
2746                        cmp     #020         
2747                        bcs     L_CheckBTSleep_Over   
2748                        ldm     R_BTSleepCounter,#0   
2749                                             
2750                        L_CheckBTSignal_LR:               
2751                        bbc     R_Flag1.B_AudioIn,L_CheckBTSleep_Exit   
2752                        inc     R_BTSleepCounter   
2753                        jmp     L_CheckBTSleep_Exit   
2754                                             
2755                        L_CheckBTSleep_Over:               
2756                        F_InitialBTSleep:               
2757                        lda     #0           
2758                        sta     R_BTSleepBaseTime   
2759                        sta     R_BTSleepSecond   
2760                        sta     R_BTSleepMinute   
2761                        sta     R_BTSleepCounter   
2762                        sta     R_BTSleepCounterTime   
2763                        #ENDIF               
2764               L_CheckBTSleep_Exit:          
2765 C9B4 6F                ret                  
2766               
2767               ;;===================================================================
2768               ;;
2769               ;;Module Name:	F_CheckAudioIn
2770               ;;
2771               ;;===================================================================
2772               F_CheckAudioIn:               
2773 C9B5 8943              inc     R_ERPIITime   
2774 C9B7 C543              lda     R_ERPIITime   
2775 C9B9 44FA              cmp     #250         
2776 C9BB 5015              bcc     L_CheckAudioIn   
2777 C9BD E40043            ldm     R_ERPIITime,#0   
2778 C9C0 C544              lda     R_ERPIICount   
2779 C9C2 440A              cmp     #010         
2780 C9C4 5014              bcc     L_CheckAudioIn_Over   
2781 C9C6 44F0              cmp     #240         
2782 C9C8 D010              bcs     L_CheckAudioIn_Over   
2783 C9CA E40044            ldm     R_ERPIICount,#0   
2784 C9CD C10D              set1    R_Flag1.B_AudioIn   
2785 C9CF 1BDFC9            jmp     L_CheckAudioIn_Exit   
2786               
2787               L_CheckAudioIn:               
2788 C9D2 53C10A            bbc     R_AudioDetPin.B_AudioDetPin,L_CheckAudioIn_Exit   
2789 C9D5 8944              inc     R_ERPIICount   
2790 C9D7 1BDFC9            jmp     L_CheckAudioIn_Exit   
2791               L_CheckAudioIn_Over:          
2792 C9DA E40044            ldm     R_ERPIICount,#0   
2793 C9DD D10D              clr1    R_Flag1.B_AudioIn   
2794               L_CheckAudioIn_Exit:          
2795 C9DF 6F                ret                  
2796               
2797               ;;======================================================================
2798               ;;
2799               ;;Module Name:	F_CheckERP
2800               ;;
2801               ;;======================================================================
2802               F_CheckERP:                   
2803 C9E0 C403              lda     #C_ADC_Key1Channel   
2804 C9E2 3B07C2            call    F_GetADCValue   
2805 C9E5 A0                setc                 
2806 C9E6 C504              lda     R0           
2807 C9E8 2400              sbc     #000H        
2808 C9EA C505              lda     R1           
2809 C9EC 2404              sbc     #004H        
2810 C9EE 5012              bcc     L_CheckERP_Exit   
2811 C9F0 A0                setc                 
2812 C9F1 C504              lda     R0           
2813 C9F3 2400              sbc     #000H        
2814 C9F5 C505              lda     R1           
2815 C9F7 240C              sbc     #00CH        
2816 C9F9 5005              bcc     L_CheckERP_Over   
2817 C9FB F10D              clr1    R_Flag1.B_ERPFlag   
2818 C9FD 1B02CA            jmp     L_CheckERP_Exit   
2819               
2820               L_CheckERP_Over:              
2821 CA00 E10D              set1    R_Flag1.B_ERPFlag   
2822               L_CheckERP_Exit:              
2823 CA02 6F                ret                  
2824               ;
2825               ;
2826               ;;
2827               ;;
2828                        include  ir.asm       
2829               ;;======================================================================================
2830               ;;
2831               ;;Module Name:	F_ReceiveIR
2832               ;;
2833               ;;======================================================================================
2834               F_ReceiveIR:                  
2835                        #IF     IRFunction   
2836 CA03 8937              inc     R_IRIntervalLo   
2837 CA05 7002              bne     L_IRIntervalNonCarry   
2838 CA07 8938              inc     R_IRIntervalHi   
2839               L_IRIntervalNonCarry:         
2840 CA09 A0                setc                 
2841 CA0A C537              lda     R_IRIntervalLo   
2842 CA0C 24B0              sbc     #0B0H        
2843 CA0E C538              lda     R_IRIntervalHi   
2844 CA10 2404              sbc     #004H        
2845 CA12 5007              bcc     L_IRIntervalNonBorrow   
2846 CA14 A937              dec     R_IRIntervalLo   
2847 CA16 E133              set1    R_IRKeyBuffer.7   
2848 CA18 E40036            ldm     R_IRKeyStore,#00   
2849               
2850               L_IRIntervalNonBorrow:        
2851 CA1B C536              lda     R_IRKeyStore   
2852 CA1D F00D              beq     L_ReceiveIR   
2853 CA1F C532              lda     R_IRKeyTemp   
2854 CA21 4533              cmp     R_IRKeyBuffer   
2855 CA23 7007              bne     L_ReceiveIR   
2856 CA25 C536              lda     R_IRKeyStore   
2857 CA27 E533              sta     R_IRKeyBuffer   
2858 CA29 E40036            ldm     R_IRKeyStore,#00   
2859               
2860               L_ReceiveIR:                  
2861 CA2C C534              lda     R_IRMode     
2862 CA2E 7025              bne     L_IRProcessMode1   
2863               
2864               ;;======================================================================================
2865               L_IRProcessMode0:             
2866 CA30 23C152            bbs     R_IRPin.B_IRPin,F_RepeatMode0   
2867 CA33 8939              inc     R_IRIIRTime   
2868 CA35 C539              lda     R_IRIIRTime   
2869 CA37 4402              cmp     #2           
2870 CA39 5019              bcc     L_IRReceive_Exit   
2871 CA3B E40134            ldm     R_IRMode,#C_IRMode1   ;检查下降沿
2872 CA3E 0135              set1    R_IRFlag.B_IRBitLow   
2873 CA40 C539              lda     R_IRIIRTime   
2874 CA42 E53B              sta     R_IRBitLowTime   
2875 CA44 E53A              sta     R_IRBitTime   
2876 CA46 C400              lda     #00          
2877 CA48 E539              sta     R_IRIIRTime   
2878 CA4A E53C              sta     R_IRBitCounter   
2879 CA4C E53D              sta     R_IRBit0     
2880 CA4E E53E              sta     R_IRBit1     
2881 CA50 E53F              sta     R_IRBit2     
2882 CA52 E540              sta     R_IRBit3     
2883               L_IRReceive_Exit:             
2884 CA54 6F                ret                  
2885               
2886               ;;======================================================================================
2887               L_IRProcessMode1:             
2888 CA55 033503            bbs     R_IRFlag.B_IRBitLow,L_IRBitProcessLow   
2889 CA58 1BB6CA            jmp     L_IRBitProcessHigh   
2890               L_IRBitProcessLow:            
2891 CA5B 33C119            bbc     R_IRPin.B_IRPin,L_IRBitProcessLow_1   ;检查上升沿 		
2892 CA5E 8939              inc     R_IRIIRTime   
2893 CA60 C539              lda     R_IRIIRTime   
2894 CA62 4402              cmp     #2           
2895 CA64 5014              bcc     L_IRBitProcessLow_2   
2896 CA66 893B              inc     R_IRBitLowTime   
2897 CA68 A0                setc                 
2898 CA69 C53B              lda     R_IRBitLowTime   
2899 CA6B 2539              sbc     R_IRIIRTime   
2900 CA6D E53B              sta     R_IRBitLowTime   
2901 CA6F E40039            ldm     R_IRIIRTime,#0   
2902 CA72 1135              clr1    R_IRFlag.B_IRBitLow   
2903 CA74 1B7CCA            jmp     L_IRBitProcessLow_3   
2904               
2905               L_IRBitProcessLow_1:          
2906 CA77 E40039            ldm     R_IRIIRTime,#0   
2907               L_IRBitProcessLow_2:          
2908 CA7A 893B              inc     R_IRBitLowTime   
2909               L_IRBitProcessLow_3:          
2910 CA7C 893A              inc     R_IRBitTime   
2911 CA7E C53A              lda     R_IRBitTime   
2912 CA80 4432              cmp     #50          
2913 CA82 D001              bcs     F_RepeatMode0   ;;F_RepeatIR
2914               L_IRBitProcessLow_Exit:       
2915 CA84 6F                ret                  
2916               
2917               ;;======================================================================================
2918               F_RepeatMode0:                
2919 CA85 1135              clr1    R_IRFlag.B_IRBitLow   
2920 CA87 C400              lda     #0           
2921               ;;	sta	R_IRKeyStore
2922 CA89 E534              sta     R_IRMode     
2923               ;	sta	R_IRBitCounter
2924 CA8B E539              sta     R_IRIIRTime   
2925 CA8D E53A              sta     R_IRBitTime   
2926 CA8F E53B              sta     R_IRBitLowTime   
2927               ;	sta	R_IRBit0
2928               ;	sta	R_IRBit1
2929               ;	sta	R_IRBit2
2930               ;	sta	R_IRBit3
2931               L_RepeatMode0_Exit:           
2932 CA91 6F                ret                  
2933               
2934               ;;======================================================================================
2935               L_IRBitProcessHigh_1:         
2936 CA92 E40039            ldm     R_IRIIRTime,#0   
2937               L_IRBitProcessHigh_2:         
2938 CA95 893A              inc     R_IRBitTime   
2939 CA97 C53A              lda     R_IRBitTime   
2940 CA99 444B              cmp     #75          
2941 CA9B D0E8              bcs     F_RepeatMode0   ;;F_RepeatIR
2942               L_IRBitProcessHigh_Exit:      
2943 CA9D 6F                ret                  
2944               
2945               ;;---------------------------------------------------------------------------------------
2946               F_CheckIRSynBit:              
2947 CA9E C53A              lda     R_IRBitTime   
2948 CAA0 442D              cmp     #45          ;(70+2)
2949 CAA2 50E1              bcc     F_RepeatMode0   ;;F_RepeatIR
2950 CAA4 C53B              lda     R_IRBitLowTime   
2951 CAA6 441C              cmp     #28          
2952 CAA8 50DB              bcc     F_RepeatMode0   ;;F_RepeatIR
2953 CAAA E40037            ldm     R_IRIntervalLo,#0   
2954 CAAD E40038            ldm     R_IRIntervalHi,#0   
2955 CAB0 E4003C            ldm     R_IRBitCounter,#0   
2956 CAB3 1B27CB            jmp     L_GetNextIRBit   
2957               
2958               ;;---------------------------------------------------------------------------------------
2959               L_IRBitProcessHigh:           
2960 CAB6 23C1D9            bbs     R_IRPin.B_IRPin,L_IRBitProcessHigh_1   ;检查一位结束
2961 CAB9 8939              inc     R_IRIIRTime   
2962 CABB C539              lda     R_IRIIRTime   
2963 CABD 4402              cmp     #2           
2964 CABF 50D4              bcc     L_IRBitProcessHigh_2   
2965 CAC1 893A              inc     R_IRBitTime   
2966 CAC3 C53A              lda     R_IRBitTime   
2967 CAC5 4408              cmp     #8           ;(2+6)
2968 CAC7 50BC              bcc     F_RepeatMode0   ;;F_RepeatIR
2969 CAC9 441E              cmp     #30          ;(2+28)
2970 CACB D0D1              bcs     F_CheckIRSynBit   
2971 CACD C53C              lda     R_IRBitCounter   
2972 CACF F0B4              beq     F_RepeatMode0   ;;F_RepeatIR
2973               L_StoreIRBit:                 
2974 CAD1 A0                setc                 
2975 CAD2 C53A              lda     R_IRBitTime   
2976 CAD4 2410              sbc     #16          ;(2+14)
2977 CAD6 6941              ror     R_IRCheckSum   
2978 CAD8 6940              ror     R_IRBit3     
2979 CADA 693F              ror     R_IRBit2     
2980 CADC 693E              ror     R_IRBit1     
2981 CADE 693D              ror     R_IRBit0     
2982 CAE0 C53C              lda     R_IRBitCounter   
2983 CAE2 4428              cmp     #40          
2984 CAE4 5041              bcc     L_GetNextIRBit   
2985 CAE6 C53D              lda     R_IRBit0     
2986 CAE8 A53E              eor     R_IRBit1     
2987 CAEA A53F              eor     R_IRBit2     
2988 CAEC A40F              eor     #00FH        
2989 CAEE 4541              cmp     R_IRCheckSum   
2990 CAF0 7043              bne     L_RepeatIR   
2991               
2992               L_IRHaveReceive:              
2993 CAF2 C402              lda     #C_IRCustomerCode1   
2994 CAF4 453E              cmp     R_IRBit1     
2995 CAF6 703D              bne     L_RepeatIR   
2996 CAF8 C53D              lda     R_IRBit0     
2997 CAFA 44BD              cmp     #C_IRCustomerCode0   
2998 CAFC 7037              bne     L_RepeatIR   
2999 CAFE C53F              lda     R_IRBit2     
3000 CB00 A4FF              eor     #0FFH        
3001 CB02 4540              cmp     R_IRBit3     
3002 CB04 702F              bne     L_RepeatIR   
3003 CB06 C53F              lda     R_IRBit2     
3004 CB08 4460              cmp     #C_MaxIRCode   
3005 CB0A D029              bcs     L_RepeatIR   
3006 CB0C E40037            ldm     R_IRIntervalLo,#0   
3007 CB0F E40038            ldm     R_IRIntervalHi,#0   
3008 CB12 E40036            ldm     R_IRKeyStore,#0   
3009 CB15 893F              inc     R_IRBit2     
3010 CB17 C533              lda     R_IRKeyBuffer   
3011 CB19 453F              cmp     R_IRBit2     
3012 CB1B 7003              bne     L_IsIRPressKey   
3013               L_IsIRBreackKey:              
3014                        #IF     ContinueIRSyc   
3015                        set1    R_IRKeyBuffer.7   
3016                        lda     R_IRBit2     
3017                        sta     R_IRKeyStore   
3018                        #ELSE                
3019                        #ENDIF               
3020 CB1D 1B85CA            jmp     F_RepeatMode0   
3021               
3022               L_IsIRPressKey:               
3023 CB20 C53F              lda     R_IRBit2     
3024 CB22 E533              sta     R_IRKeyBuffer   
3025 CB24 1B85CA            jmp     F_RepeatMode0   
3026               
3027               L_GetNextIRBit:               
3028 CB27 893C              inc     R_IRBitCounter   
3029 CB29 C539              lda     R_IRIIRTime   
3030 CB2B E53B              sta     R_IRBitLowTime   
3031 CB2D E53A              sta     R_IRBitTime   
3032 CB2F E40039            ldm     R_IRIIRTime,#0   
3033 CB32 0135              set1    R_IRFlag.B_IRBitLow   
3034               L_IRHaveReceive_Exit:         
3035 CB34 6F                ret                  
3036               
3037               ;;-------------------------------------------------------------------------------
3038               L_RepeatIR:                   
3039 CB35 E40036            ldm     R_IRKeyStore,#0   
3040 CB38 E133              set1    R_IRKeyBuffer.7   
3041 CB3A 1B85CA            jmp     F_RepeatMode0   
3042                        #ENDIF               
3043               L_RepeatIR_Exit:              
3044 CB3D 6F                ret                  
3045               
3046               ;;======================================================================================
3047               ;;
3048               ;;Module Name:	F_ResetIR
3049               ;;
3050               ;;======================================================================================
3051               F_ResetIR:                    
3052                        #IF     IRFunction   
3053 CB3E C480              lda     #080H        
3054 CB40 E533              sta     R_IRKeyBuffer   
3055 CB42 E532              sta     R_IRKeyTemp   
3056 CB44 1135              clr1    R_IRFlag.B_IRBitLow   
3057 CB46 C400              lda     #0           
3058 CB48 E536              sta     R_IRKeyStore   
3059 CB4A E534              sta     R_IRMode     
3060               ;	sta	R_IRBitCounter
3061 CB4C E539              sta     R_IRIIRTime   
3062 CB4E E53A              sta     R_IRBitTime   
3063 CB50 E53B              sta     R_IRBitLowTime   
3064               ;	sta	R_IRBit0
3065               ;	sta	R_IRBit1
3066               ;	sta	R_IRBit2
3067               ;	sta	R_IRBit3
3068 CB52 E537              sta     R_IRIntervalLo   
3069 CB54 E538              sta     R_IRIntervalHi   
3070                        #ENDIF               
3071               L_ResetIR_Exit:               
3072 CB56 6F                ret                  
3073               ;
3074               ;
3075               ;;
3076               ;;
3077                        include  coder1.asm   
3078               ;;====================================================================================
3079               ;;
3080               ;;Module Name:	F_CoderProcess1		for volume
3081               ;;
3082               ;;Describe:			B_CoderLFlag1(1:表示IO低，0:表示IO高)
3083               ;;							B_CoderRFlag1(1:表示IO低，0:表示IO高)
3084               ;;
3085               ;;===================================================================================
3086               F_CoderProcess1:              
3087 CB57 43480E            bbs     R_CoderFlag1.B_WaitCoderH1,L_WaitCoderH1   
3088 CB5A 53C515            bbc     R_CoderLPin1.B_CoderLPin1,L_CheckCoderTurn1   
3089 CB5D 1148              clr1    R_CoderFlag1.B_CoderLFlag1   
3090 CB5F 53C503            bbc     R_CoderRPin1.B_CoderRPin1,L_CoderRFlagHigh1   
3091               L_CoderRFlagLow1:             
3092 CB62 3148              clr1    R_CoderFlag1.B_CoderRFlag1   
3093 CB64 6F                ret                  
3094               L_CoderRFlagHigh1:            
3095 CB65 2148              set1    R_CoderFlag1.B_CoderRFlag1   
3096 CB67 6F                ret                  
3097               
3098               L_WaitCoderH1:                
3099 CB68 53C506            bbc     R_CoderRPin1.B_CoderRPin1,L_WaitCoderH_Exit1   
3100 CB6B 53C503            bbc     R_CoderLPin1.B_CoderLPin1,L_WaitCoderH_Exit1   
3101 CB6E 1BA1CB            jmp     F_ResetCoder1   
3102               L_WaitCoderH_Exit1:           
3103 CB71 6F                ret                  
3104               
3105               L_CheckCoderTurn1:            
3106 CB72 034818            bbs     R_CoderFlag1.B_CoderLFlag1,L_CheckCoderTurnRight1   
3107 CB75 0148              set1    R_CoderFlag1.B_CoderLFlag1   
3108               L_CheckCoderTurnLeft1:        
3109 CB77 33480C            bbc     R_CoderFlag1.B_CoderRFlag1,L_CoderErrorRPin1   
3110 CB7A 4148              set1    R_CoderFlag1.B_WaitCoderH1   
3111 CB7C E40049            ldm     R_CoderTurnL1,#0   
3112 CB7F 894A              inc     R_CoderTurnR1   
3113 CB81 7002              bne     L_CheckCoderTurnLeft_Exit1   
3114 CB83 894A              inc     R_CoderTurnR1   
3115               L_CheckCoderTurnLeft_Exit1:   
3116 CB85 6F                ret                  
3117               
3118               L_CoderErrorRPin1:            
3119 CB86 43C503            bbs     R_CoderRPin1.B_CoderRPin1,L_CoderErrorRPin_Exit1   
3120 CB89 1BA1CB            jmp     F_ResetCoder1   
3121               L_CoderErrorRPin_Exit1:       
3122 CB8C 6F                ret                  
3123               
3124               L_CheckCoderTurnRight1:       
3125 CB8D 43C5D2            bbs     R_CoderRPin1.B_CoderRPin1,L_CoderRFlagLow1   
3126 CB90 23480D            bbs     R_CoderFlag1.B_CoderRFlag1,L_CoderProcess_Exit1   
3127 CB93 2148              set1    R_CoderFlag1.B_CoderRFlag1   
3128 CB95 4148              set1    R_CoderFlag1.B_WaitCoderH1   
3129 CB97 E4004A            ldm     R_CoderTurnR1,#0   
3130 CB9A 8949              inc     R_CoderTurnL1   
3131 CB9C 7002              bne     L_CoderProcess_Exit1   
3132 CB9E 8949              inc     R_CoderTurnL1   
3133               L_CoderProcess_Exit1:         
3134 CBA0 6F                ret                  
3135               
3136               
3137               ;;====================================================================================
3138               F_ResetCoder1:                
3139 CBA1 1148              clr1    R_CoderFlag1.B_CoderLFlag1   
3140 CBA3 43C502            bbs     R_CoderLPin1.B_CoderLPin1,L_ResetCoder1   
3141 CBA6 0148              set1    R_CoderFlag1.B_CoderLFlag1   
3142               L_ResetCoder1:                
3143 CBA8 43C505            bbs     R_CoderRPin1.B_CoderRPin1,L_ResetCoder_Over1   
3144 CBAB 2148              set1    R_CoderFlag1.B_CoderRFlag1   
3145 CBAD 5148              clr1    R_CoderFlag1.B_WaitCoderH1   
3146 CBAF 6F                ret                  
3147               
3148               L_ResetCoder_Over1:           
3149 CBB0 3148              clr1    R_CoderFlag1.B_CoderRFlag1   
3150 CBB2 5148              clr1    R_CoderFlag1.B_WaitCoderH1   
3151               L_ResetCoder_Exit1:           
3152 CBB4 6F                ret                  
3153               
3154               ;;========================================================================
3155               ;;
3156               ;;Module Name:	F_ClearCoder
3157               ;;
3158               ;;========================================================================
3159               F_ClearCoder:                 
3160 CBB5 E40046            ldm     R_CoderTurnL,#0   
3161 CBB8 E40047            ldm     R_CoderTurnR,#0   
3162 CBBB E40049            ldm     R_CoderTurnL1,#0   
3163 CBBE E4004A            ldm     R_CoderTurnR1,#0   
3164 CBC1 E4004C            ldm     R_CoderTurnL2,#0   
3165 CBC4 E4004D            ldm     R_CoderTurnR2,#0   
3166 CBC7 E4004F            ldm     R_CoderTurnL3,#0   
3167 CBCA E40050            ldm     R_CoderTurnR3,#0   
3168               L_ClearCoder_Exit:            
3169 CBCD 6F                ret                  
3170               ;
3171               ;
3172               ;;
3173               ;;
3174                        include  coder2.asm   
3175               ;;====================================================================================
3176               ;;
3177               ;;Module Name:	F_CoderProcess2		for bass
3178               ;;
3179               ;;Describe:			B_CoderLFlag2(1:表示IO低，0:表示IO高)
3180               ;;							B_CoderRFlag2(1:表示IO低，0:表示IO高)
3181               ;;
3182               ;;===================================================================================
3183               F_CoderProcess2:              
3184                        #IF     BassFunction   
3185                        bbs     R_CoderFlag2.B_WaitCoderH2,L_WaitCoderH2   
3186                        bbc     R_CoderLPin2.B_CoderLPin2,L_CheckCoderTurn2   
3187                        clr1    R_CoderFlag2.B_CoderLFlag2   
3188                        bbc     R_CoderRPin2.B_CoderRPin2,L_CoderRFlagHigh2   
3189                        L_CoderRFlagLow2:               
3190                        clr1    R_CoderFlag2.B_CoderRFlag2   
3191                        ret                  
3192                        L_CoderRFlagHigh2:               
3193                        set1    R_CoderFlag2.B_CoderRFlag2   
3194                        ret                  
3195                                             
3196                        L_WaitCoderH2:               
3197                        bbc     R_CoderRPin2.B_CoderRPin2,L_WaitCoderH_Exit2   
3198                        bbc     R_CoderLPin2.B_CoderLPin2,L_WaitCoderH_Exit2   
3199                        jmp     F_ResetCoder2   
3200                        L_WaitCoderH_Exit2:               
3201                        ret                  
3202                                             
3203                        L_CheckCoderTurn2:               
3204                        bbs     R_CoderFlag2.B_CoderLFlag2,L_CheckCoderTurnRight2   
3205                        set1    R_CoderFlag2.B_CoderLFlag2   
3206                        L_CheckCoderTurnLeft2:               
3207                        bbc     R_CoderFlag2.B_CoderRFlag2,L_CoderErrorRPin2   
3208                        set1    R_CoderFlag2.B_WaitCoderH2   
3209                        ldm     R_CoderTurnL2,#0   
3210                        inc     R_CoderTurnR2   
3211                        bne     L_CheckCoderTurnLeft_Exit2   
3212                        inc     R_CoderTurnR2   
3213                        L_CheckCoderTurnLeft_Exit2:               
3214                        ret                  
3215                                             
3216                        L_CoderErrorRPin2:               
3217                        bbs     R_CoderRPin2.B_CoderRPin2,L_CoderErrorRPin_Exit2   
3218                        jmp     F_ResetCoder2   
3219                        L_CoderErrorRPin_Exit2:               
3220                        ret                  
3221                                             
3222                        L_CheckCoderTurnRight2:               
3223                        bbs     R_CoderRPin2.B_CoderRPin2,L_CoderRFlagLow2   
3224                        bbs     R_CoderFlag2.B_CoderRFlag2,L_CoderProcess_Exit2   
3225                        set1    R_CoderFlag2.B_CoderRFlag2   
3226                        set1    R_CoderFlag2.B_WaitCoderH2   
3227                        ldm     R_CoderTurnR2,#0   
3228                        inc     R_CoderTurnL2   
3229                        bne     L_CoderProcess_Exit2   
3230                        inc     R_CoderTurnL2   
3231                        #ENDIF               
3232               L_CoderProcess_Exit2:         
3233 CBCE 6F                ret                  
3234               
3235               
3236               ;;====================================================================================
3237               F_ResetCoder2:                
3238                        #IF     BassFunction   
3239                        clr1    R_CoderFlag2.B_CoderLFlag2   
3240                        bbs     R_CoderLPin2.B_CoderLPin2,L_ResetCoder2   
3241                        set1    R_CoderFlag2.B_CoderLFlag2   
3242                        L_ResetCoder2:               
3243                        bbs     R_CoderRPin2.B_CoderRPin2,L_ResetCoder_Over2   
3244                        set1    R_CoderFlag2.B_CoderRFlag2   
3245                        clr1    R_CoderFlag2.B_WaitCoderH2   
3246                        ret                  
3247                                             
3248                        L_ResetCoder_Over2:               
3249                        clr1    R_CoderFlag2.B_CoderRFlag2   
3250                        clr1    R_CoderFlag2.B_WaitCoderH2   
3251                        #ENDIF               
3252               L_ResetCoder_Exit2:           
3253 CBCF 6F                ret                  
3254               ;
3255               ;
3256               ;;
3257               ;;
3258                        include  coder3.asm   
3259               ;;====================================================================================
3260               ;;
3261               ;;Module Name:	F_CoderProcess3		for treble
3262               ;;
3263               ;;Describe:			B_CoderLFlag3(1:表示IO低，0:表示IO高)
3264               ;;							B_CoderRFlag3(1:表示IO低，0:表示IO高)
3265               ;;
3266               ;;===================================================================================
3267               F_CoderProcess3:              
3268                        #IF     TrebleFunction   
3269                        bbs     R_CoderFlag3.B_WaitCoderH3,L_WaitCoderH3   
3270                        bbc     R_CoderLPin3.B_CoderLPin3,L_CheckCoderTurn3   
3271                        clr1    R_CoderFlag3.B_CoderLFlag3   
3272                        bbc     R_CoderRPin3.B_CoderRPin3,L_CoderRFlagHigh3   
3273                        L_CoderRFlagLow3:               
3274                        clr1    R_CoderFlag3.B_CoderRFlag3   
3275                        ret                  
3276                        L_CoderRFlagHigh3:               
3277                        set1    R_CoderFlag3.B_CoderRFlag3   
3278                        ret                  
3279                                             
3280                        L_WaitCoderH3:               
3281                        bbc     R_CoderRPin3.B_CoderRPin3,L_WaitCoderH_Exit3   
3282                        bbc     R_CoderLPin3.B_CoderLPin3,L_WaitCoderH_Exit3   
3283                        jmp     F_ResetCoder3   
3284                        L_WaitCoderH_Exit3:               
3285                        ret                  
3286                                             
3287                        L_CheckCoderTurn3:               
3288                        bbs     R_CoderFlag3.B_CoderLFlag3,L_CheckCoderTurnRight3   
3289                        set1    R_CoderFlag3.B_CoderLFlag3   
3290                        L_CheckCoderTurnLeft3:               
3291                        bbc     R_CoderFlag3.B_CoderRFlag3,L_CoderErrorRPin3   
3292                        set1    R_CoderFlag3.B_WaitCoderH3   
3293                        ldm     R_CoderTurnL3,#0   
3294                        inc     R_CoderTurnR3   
3295                        bne     L_CheckCoderTurnLeft_Exit3   
3296                        inc     R_CoderTurnR3   
3297                        L_CheckCoderTurnLeft_Exit3:               
3298                        ret                  
3299                                             
3300                        L_CoderErrorRPin3:               
3301                        bbs     R_CoderRPin3.B_CoderRPin3,L_CoderErrorRPin_Exit3   
3302                        jmp     F_ResetCoder3   
3303                        L_CoderErrorRPin_Exit3:               
3304                        ret                  
3305                                             
3306                        L_CheckCoderTurnRight3:               
3307                        bbs     R_CoderRPin3.B_CoderRPin3,L_CoderRFlagLow3   
3308                        bbs     R_CoderFlag3.B_CoderRFlag3,L_CoderProcess_Exit3   
3309                        set1    R_CoderFlag3.B_CoderRFlag3   
3310                        set1    R_CoderFlag3.B_WaitCoderH3   
3311                        ldm     R_CoderTurnR3,#0   
3312                        inc     R_CoderTurnL3   
3313                        bne     L_CoderProcess_Exit3   
3314                        inc     R_CoderTurnL3   
3315                        #ENDIF               
3316               L_CoderProcess_Exit3:         
3317 CBD0 6F                ret                  
3318               
3319               
3320               ;;====================================================================================
3321               F_ResetCoder3:                
3322                        #IF     TrebleFunction   
3323                        clr1    R_CoderFlag3.B_CoderLFlag3   
3324                        bbs     R_CoderLPin3.B_CoderLPin3,L_ResetCoder3   
3325                        set1    R_CoderFlag3.B_CoderLFlag3   
3326                        L_ResetCoder3:               
3327                        bbs     R_CoderRPin3.B_CoderRPin3,L_ResetCoder_Over3   
3328                        set1    R_CoderFlag3.B_CoderRFlag3   
3329                        clr1    R_CoderFlag3.B_WaitCoderH3   
3330                        ret                  
3331                                             
3332                        L_ResetCoder_Over3:               
3333                        clr1    R_CoderFlag3.B_CoderRFlag3   
3334                        clr1    R_CoderFlag3.B_WaitCoderH3   
3335                        #ENDIF               
3336               L_ResetCoder_Exit3:           
3337 CBD1 6F                ret                  
3338               ;
3339               ;
3340               ;;
3341               ;;
3342                        include  volume.asm   
3343               ;;======================================================================================
3344               ;;
3345               ;;Module Name:	F_CheckVolume
3346               ;;
3347               ;;=====================================================================================
3348               F_CheckVolume:                
3349 CBD2 C50E              lda     R_MainMode   
3350 CBD4 F017              beq     L_ClearCoder1   
3351 CBD6 C510              lda     R_SetTimeFlag   
3352 CBD8 4401              cmp     #C_SetVolume   
3353 CBDA F008              beq     L_CheckVolume   
3354 CBDC C549              lda     R_CoderTurnL1   
3355 CBDE 654A              or      R_CoderTurnR1   
3356 CBE0 4401              cmp     #1           
3357 CBE2 500F              bcc     L_CheckVolume_Exit   
3358               L_CheckVolume:                
3359 CBE4 C51C              lda     R_KeyminderBufferCol0   
3360 CBE6 8406              and     #00000110B   
3361 CBE8 F00A              beq     L_CoderAdjustVolume   
3362 CBEA 1BCECC            jmp     L_ButtomVolume   
3363               L_ClearCoder1:                
3364 CBED E40049            ldm     R_CoderTurnL1,#0   
3365 CBF0 E4004A            ldm     R_CoderTurnR1,#0   
3366               L_CheckVolume_Exit:           
3367 CBF3 6F                ret                  
3368               
3369               L_CoderAdjustVolume:          
3370 CBF4 C51C              lda     R_KeyminderBufferCol0   
3371 CBF6 651D              or      R_KeyminderBufferCol1   
3372 CBF8 651E              or      R_KeyminderBufferCol2   
3373 CBFA 651F              or      R_KeyminderBufferCol3   
3374 CBFC 70EF              bne     L_ClearCoder1   
3375               
3376 CBFE C549              lda     R_CoderTurnL1   
3377 CC00 654A              or      R_CoderTurnR1   
3378 CC02 F0EF              beq     L_CheckVolume_Exit   
3379 CC04 330D24            bbc     R_Flag1.B_MuteFlag,L_CoderVolume   
3380 CC07 C512              lda     R_Volume     
3381 CC09 F020              beq     L_CoderVolume   
3382 CC0B 4401              cmp     #1           
3383 CC0D 700C              bne     L_Coder1UpDn   
3384 CC0F C54A              lda     R_CoderTurnR1   
3385 CC11 F008              beq     L_Coder1UpDn   
3386 CC13 310D              clr1    R_Flag1.B_MuteFlag   
3387 CC15 3B6AD0            call    F_DisplayLed   
3388 CC18 1B37CC            jmp     L_TurnVolumeDown   
3389               L_Coder1UpDn:                 
3390 CC1B 3B04CE            call    F_SetVolumeMute   
3391 CC1E C402              lda     #02          
3392 CC20 3BDCC1            call    F_Delay7_8125ms   
3393 CC23 3BEECC            call    F_MuteOffCtrl   
3394 CC26 C405              lda     #05          
3395 CC28 3BDCC1            call    F_Delay7_8125ms   
3396               L_CoderVolume:                
3397 CC2B 310D              clr1    R_Flag1.B_MuteFlag   
3398 CC2D 3B6AD0            call    F_DisplayLed   
3399 CC30 C54A              lda     R_CoderTurnR1   
3400 CC32 7003              bne     L_TurnVolumeDown   
3401 CC34 1B80CC            jmp     L_TurnVolumeUp   
3402               L_TurnVolumeDown:             
3403 CC37 E40049            ldm     R_CoderTurnL1,#0   
3404 CC3A E4004A            ldm     R_CoderTurnR1,#0   
3405 CC3D 3BD5C8            call    F_SetBackNormalTime   
3406 CC40 E40110            ldm     R_SetTimeFlag,#C_SetVolume   
3407 CC43 3B6AD0            call    F_DisplayLed   
3408 CC46 C512              lda     R_Volume     
3409 CC48 4401              cmp     #1           
3410 CC4A 7017              bne     L_TurnVolumeDown1   
3411 CC4C E40012            ldm     R_Volume,#0   
3412 CC4F 3B04CE            call    F_SetVolumeMute   
3413 CC52 3BF5CC            call    F_MuteOnCtrl   
3414 CC55 3B6ED0            call    F_PowerOffLed   
3415 CC58 C40A              lda     #10          
3416 CC5A 3BDCC1            call    F_Delay7_8125ms   
3417 CC5D 3B6AD0            call    F_DisplayLed   
3418 CC60 1BC4CC            jmp     L_AdjustVolume   
3419               
3420               L_TurnVolumeDown1:            
3421 CC63 C512              lda     R_Volume     
3422 CC65 F05D              beq     L_AdjustVolume   
3423 CC67 C512              lda     R_Volume     
3424 CC69 E504              sta     R0           
3425 CC6B C401              lda     #1           
3426 CC6D 3B66C2            call    F_BCD_Sub    
3427 CC70 E512              sta     R_Volume     
3428 CC72 3B6ED0            call    F_PowerOffLed   
3429 CC75 C408              lda     #08          
3430 CC77 3BDCC1            call    F_Delay7_8125ms   
3431 CC7A 3B6AD0            call    F_DisplayLed   
3432 CC7D 1BC4CC            jmp     L_AdjustVolume   
3433               
3434               ;;---------------------------------------------------------------------------
3435               L_TurnVolumeUp:               
3436 CC80 E40049            ldm     R_CoderTurnL1,#0   
3437 CC83 E4004A            ldm     R_CoderTurnR1,#0   
3438 CC86 3BD5C8            call    F_SetBackNormalTime   
3439 CC89 E40110            ldm     R_SetTimeFlag,#C_SetVolume   
3440 CC8C 3B6AD0            call    F_DisplayLed   
3441 CC8F C512              lda     R_Volume     
3442 CC91 7016              bne     L_TurnVolumeUp1   
3443 CC93 8912              inc     R_Volume     
3444 CC95 3B04CE            call    F_SetVolumeMute   
3445 CC98 3B6ED0            call    F_PowerOffLed   
3446 CC9B 3BEECC            call    F_MuteOffCtrl   
3447 CC9E C40A              lda     #10          
3448 CCA0 3BDCC1            call    F_Delay7_8125ms   
3449 CCA3 3B6AD0            call    F_DisplayLed   
3450 CCA6 1BC4CC            jmp     L_AdjustVolume   
3451               
3452               L_TurnVolumeUp1:              
3453 CCA9 C512              lda     R_Volume     
3454 CCAB 4430              cmp     #C_MaxVolume   
3455 CCAD D015              bcs     L_AdjustVolume   
3456 CCAF E40104            ldm     R0,#1        
3457 CCB2 C512              lda     R_Volume     
3458 CCB4 3BC9C2            call    F_BCD_Add    
3459 CCB7 E512              sta     R_Volume     
3460 CCB9 3B6ED0            call    F_PowerOffLed   
3461 CCBC C408              lda     #08          
3462 CCBE 3BDCC1            call    F_Delay7_8125ms   
3463 CCC1 3B6AD0            call    F_DisplayLed   
3464               L_AdjustVolume:               
3465 CCC4 C512              lda     R_Volume     
3466 CCC6 E513              sta     R_VolumeTemp   
3467 CCC8 3B76C8            call    F_StoreVolume   
3468 CCCB 1BF9CC            jmp     F_SetVolume   
3469               
3470               ;;=====================================================================================
3471               L_ButtomVolume:               
3472 CCCE E40049            ldm     R_CoderTurnL1,#0   
3473 CCD1 E4004A            ldm     R_CoderTurnR1,#0   
3474 CCD4 C510              lda     R_SetTimeFlag   
3475 CCD6 4401              cmp     #C_SetVolume   
3476 CCD8 7011              bne     L_ChangeVolume_Exit   
3477 CCDA A914              dec     R_VolumeTime   
3478 CCDC C514              lda     R_VolumeTime   
3479 CCDE 4401              cmp     #1           
3480 CCE0 D009              bcs     L_ChangeVolume_Exit   
3481               F_ChangeVolume:               
3482 CCE2 E40314            ldm     R_VolumeTime,#3   
3483 CCE5 231C98            bbS     R_KeyminderBufferCol0.1,L_TurnVolumeUp   
3484 CCE8 1B37CC            jmp     L_TurnVolumeDown   
3485               L_ChangeVolume_Exit:          
3486 CCEB 6F                ret                  
3487               
3488               ;;======================================================================================
3489               ;;
3490               ;;Module Name:	F_CheckBass
3491               ;;
3492               ;;=====================================================================================
3493               F_CheckBass:                  
3494                        #IF     BassFunction   
3495                        lda     R_MainMode   
3496                        beq     L_ClearCoder2   
3497                        lda     R_SetTimeFlag   
3498                        cmp     #C_SetBass   
3499                        beq     L_CheckBass   
3500                        lda     R_CoderTurnL2   
3501                        or      R_CoderTurnR2   
3502                        cmp     #1           
3503                        bcc     L_CheckBass_Exit   
3504                        L_CheckBass:               
3505                        lda     R_KeyminderBufferCol2   
3506                        and     #00000011B   
3507                        beq     L_AdjustBass   
3508                        jmp     L_ButtomBass   
3509                        L_ClearCoder2:               
3510                        ldm     R_CoderTurnL2,#0   
3511                        ldm     R_CoderTurnR2,#0   
3512                        L_CheckBass_Exit:               
3513                        ret                  
3514                                             
3515                        L_AdjustBass:               
3516                        lda     R_KeyminderBufferCol0   
3517                        or      R_KeyminderBufferCol1   
3518                        or      R_KeyminderBufferCol2   
3519                        or      R_KeyminderBufferCol3   
3520                        bne     L_ClearCoder2   
3521                                             
3522                        lda     R_CoderTurnL2   
3523                        or      R_CoderTurnR2   
3524                        beq     L_CheckBass_Exit   
3525                        bbc     R_Flag1.B_MuteFlag,L_CoderBass   
3526                        lda     R_Volume     
3527                        beq     L_CoderBass   
3528                        call    F_SetVolumeMute   
3529                        lda     #02          
3530                        call    F_Delay7_8125ms   
3531                        call    F_MuteOffCtrl   
3532                        lda     #05          
3533                        call    F_Delay7_8125ms   
3534                        L_CoderBass:               
3535                        clr1    R_Flag1.B_MuteFlag   
3536                        call    F_DisplayLed   
3537                        lda     R_CoderTurnR2   
3538                        bne     L_TurnBassDown   
3539                        jmp     L_TurnBassUp   
3540                        L_TurnBassDown:               
3541                        ldm     R_CoderTurnL2,#0   
3542                        ldm     R_CoderTurnR2,#0   
3543                        call    F_SetBackNormalTime   
3544                        ldm     R_SetTimeFlag,#C_SetBass   
3545                        call    F_DisplayLed   
3546                        lda     R_Bass       
3547                        beq     L_SetBass    
3548                        dec     R_Bass       
3549                        call    F_PowerOffLed   
3550                        lda     #08          
3551                        call    F_Delay7_8125ms   
3552                        call    F_DisplayLed   
3553                        L_SetBass:               
3554                        call    F_StoreBass   
3555                        lda     R_VolumeTemp   
3556                        cmp     R_Volume     
3557                        bne     L_CheckBass_Exit   
3558                        jmp     F_SetVolume   
3559                                             
3560                                             ;;---------------------------------------------------------------------------
3561                        L_TurnBassUp:               
3562                        ldm     R_CoderTurnL2,#0   
3563                        ldm     R_CoderTurnR2,#0   
3564                        call    F_SetBackNormalTime   
3565                        ldm     R_SetTimeFlag,#C_SetBass   
3566                        call    F_DisplayLed   
3567                        lda     R_Bass       
3568                        cmp     #C_MaxBass   
3569                        bcs     L_SetBass    
3570                        inc     R_Bass       
3571                        call    F_PowerOffLed   
3572                        lda     #08          
3573                        call    F_Delay7_8125ms   
3574                        call    F_DisplayLed   
3575                        jmp     L_SetBass    
3576                                             
3577                                             ;;=====================================================================================
3578                        L_ButtomBass:               
3579                        ldm     R_CoderTurnL2,#0   
3580                        ldm     R_CoderTurnR2,#0   
3581                        lda     R_SetTimeFlag   
3582                        cmp     #C_SetBass   
3583                        bne     L_ChangeBass_Exit   
3584                        dec     R_BassTime   
3585                        lda     R_BassTime   
3586                        cmp     #1           
3587                        bcs     L_ChangeBass_Exit   
3588                        F_ChangeBass:               
3589                        ldm     R_BassTime,#3   
3590                        bbs     R_KeyminderBufferCol2.0,L_TurnBassUp   
3591                        jmp     L_TurnBassDown   
3592                        #ENDIF               
3593               L_ChangeBass_Exit:            
3594 CCEC 6F                ret                  
3595               
3596               ;;======================================================================================
3597               ;;
3598               ;;Module Name:	F_CheckTreble
3599               ;;
3600               ;;=====================================================================================
3601               F_CheckTreble:                
3602                        #IF     TrebleFunction   
3603                        lda     R_MainMode   
3604                        beq     L_ClearCoder3   
3605                        lda     R_SetTimeFlag   
3606                        cmp     #C_SetTreble   
3607                        beq     L_CheckTreble   
3608                        lda     R_CoderTurnL3   
3609                        or      R_CoderTurnR3   
3610                        cmp     #1           
3611                        bcc     L_CheckTreble_Exit   
3612                        L_CheckTreble:               
3613                        lda     R_KeyminderBufferCol2   
3614                        and     #00001100B   
3615                        beq     L_AdjustTreble   
3616                        jmp     L_ButtomTreble   
3617                        L_ClearCoder3:               
3618                        ldm     R_CoderTurnL3,#0   
3619                        ldm     R_CoderTurnR3,#0   
3620                        L_CheckTreble_Exit:               
3621                        ret                  
3622                                             
3623                        L_AdjustTreble:               
3624                        lda     R_KeyminderBufferCol0   
3625                        or      R_KeyminderBufferCol1   
3626                        or      R_KeyminderBufferCol2   
3627                        or      R_KeyminderBufferCol3   
3628                        bne     L_ClearCoder3   
3629                                             
3630                        lda     R_CoderTurnL3   
3631                        or      R_CoderTurnR3   
3632                        beq     L_CheckTreble_Exit   
3633                        bbc     R_Flag1.B_MuteFlag,L_CoderTreble   
3634                        lda     R_Volume     
3635                        beq     L_CoderTreble   
3636                        call    F_SetVolumeMute   
3637                        lda     #02          
3638                        call    F_Delay7_8125ms   
3639                        call    F_MuteOffCtrl   
3640                        lda     #05          
3641                        call    F_Delay7_8125ms   
3642                        L_CoderTreble:               
3643                        clr1    R_Flag1.B_MuteFlag   
3644                        call    F_DisplayLed   
3645                        lda     R_CoderTurnR3   
3646                        bne     L_TurnTrebleDown   
3647                        jmp     L_TurnTrebleUp   
3648                        L_TurnTrebleDown:               
3649                        ldm     R_CoderTurnL3,#0   
3650                        ldm     R_CoderTurnR3,#0   
3651                        call    F_SetBackNormalTime   
3652                        ldm     R_SetTimeFlag,#C_SetTreble   
3653                        call    F_DisplayLed   
3654                        lda     R_Treble     
3655                        beq     L_SetTreble   
3656                        dec     R_Treble     
3657                        call    F_PowerOffLed   
3658                        lda     #08          
3659                        call    F_Delay7_8125ms   
3660                        call    F_DisplayLed   
3661                        L_SetTreble:               
3662                        call    F_StoreTreble   
3663                        lda     R_VolumeTemp   
3664                        cmp     R_Volume     
3665                        bne     L_CheckTreble_Exit   
3666                        jmp     F_SetVolume   
3667                                             
3668                                             ;;---------------------------------------------------------------------------
3669                        L_TurnTrebleUp:               
3670                        ldm     R_CoderTurnL3,#0   
3671                        ldm     R_CoderTurnR3,#0   
3672                        call    F_SetBackNormalTime   
3673                        ldm     R_SetTimeFlag,#C_SetTreble   
3674                        call    F_DisplayLed   
3675                        lda     R_Treble     
3676                        cmp     #C_MaxTreble   
3677                        bcs     L_SetTreble   
3678                        inc     R_Treble     
3679                        call    F_PowerOffLed   
3680                        lda     #08          
3681                        call    F_Delay7_8125ms   
3682                        call    F_DisplayLed   
3683                        jmp     L_SetTreble   
3684                                             
3685                                             ;;=====================================================================================
3686                        L_ButtomTreble:               
3687                        ldm     R_CoderTurnL3,#0   
3688                        ldm     R_CoderTurnR3,#0   
3689                        lda     R_SetTimeFlag   
3690                        cmp     #C_SetTreble   
3691                        bne     L_ChangeTreble_Exit   
3692                        dec     R_TrebleTime   
3693                        lda     R_TrebleTime   
3694                        cmp     #1           
3695                        bcs     L_ChangeTreble_Exit   
3696                        F_ChangeTreble:               
3697                        ldm     R_TrebleTime,#3   
3698                        bbs     R_KeyminderBufferCol2.2,L_TurnTrebleUp   
3699                        jmp     L_TurnTrebleDown   
3700                        #ENDIF               
3701               L_ChangeTreble_Exit:          
3702 CCED 6F                ret                  
3703               
3704               ;;============================================================================
3705               ;;
3706               ;;Module Name:	F_MuteOffCtrl
3707               ;;
3708               ;;============================================================================
3709               F_MuteOffCtrl:                
3710 CCEE C50E              lda     R_MainMode   
3711 CCF0 F002              beq     L_MuteOffCtrl_Exit   
3712 CCF2 01C3              set1    R_MuteCtrl.B_MuteCtrl   
3713               L_MuteOffCtrl_Exit:           
3714 CCF4 6F                ret                  
3715               
3716               ;;============================================================================
3717               ;;
3718               ;;Module Name:	F_MuteOnCtrl
3719               ;;
3720               ;;============================================================================
3721               F_MuteOnCtrl:                 
3722 CCF5 11C3              clr1    R_MuteCtrl.B_MuteCtrl   
3723               L_MuteOnCtrl_Exit:            
3724 CCF7 6F                ret                  
3725               
3726               ;;====================================================================================
3727               ;;
3728               ;;Module Name:	F_VolumeRamUp
3729               ;;
3730               ;;====================================================================================
3731               F_VolumeRamUp:                
3732                        #IF     VolumeRamUp   
3733                        inc     R_VolumeRamUpTime   
3734                        lda     R_VolumeRamUpTime   
3735                        cmp     #C_VolumeRamUpTime   
3736                        bcc     L_VolumeRamUp_Exit   
3737                        ldm     R_VolumeRamUpTime,#00   
3738                        lda     R_MainMode   
3739                        beq     L_VolumeRamUp_Exit   
3740                        bbs     R_Flag1.B_MuteFlag,L_VolumeRamUp_Exit   
3741                        lda     R_Volume     
3742                        cmp     R_VolumeTemp   
3743                        bcs     L_VolumeRamUp_Exit   
3744                        clrc                 
3745                        lda     R_Volume     
3746                        adc     #1           
3747                        sta     R_Volume     
3748                        and     #00FH        
3749                        cmp     #00AH        
3750                        bcc     L_VolumeRamUp   
3751                        clrc                 
3752                        lda     #6           
3753                        adc     R_Volume     
3754                        sta     R_Volume     
3755                        L_VolumeRamUp:               
3756                        call    F_SetVolume   
3757                        #ENDIF               
3758               L_VolumeRamUp_Exit:           
3759 CCF8 6F                ret                  
3760               ;
3761               ;
3762               ;;
3763               ;;
3764                        include  tas5713.asm   
3765               ;;======================================================================================
3766               ;;
3767               ;;Module Name:	F_SetVolume
3768               ;;
3769               ;;Input:				R_Volume
3770               ;;
3771               ;;Use:					A,R0,R1,R2
3772               ;;
3773               ;;======================================================================================
3774               F_SetVolume:                  
3775 CCF9 C512              lda     R_Volume     
3776 CCFB 7003              bne     L_SetVolume   
3777 CCFD 1B04CE            jmp     F_SetVolumeMute   
3778               L_SetVolume:                  
3779 CD00 3B08CD            call    F_SetVolume_1   
3780 CD03 C506              lda     R2           
3781 CD05 7001              bne     F_SetVolume_1   
3782               L_SetVolume_Exit:             
3783 CD07 6F                ret                  
3784               
3785               ;;--------------------------------------------------------------------------------------
3786               F_SetVolume_1:                
3787 CD08 E40006            ldm     R2,#0        
3788               
3789 CD0B 3B06D0            call    F_D2AudioStartBit   
3790 CD0E C498              lda     #098H        
3791 CD10 3B53D0            call    F_SendD2AudioByte   
3792 CD13 3B32D0            call    F_D2AudioACKBit   
3793 CD16 6506              or      R2           
3794 CD18 E506              sta     R2           
3795 CD1A C400              lda     #000H        
3796 CD1C 3B53D0            call    F_SendD2AudioByte   
3797 CD1F 3B32D0            call    F_D2AudioACKBit   
3798 CD22 6506              or      R2           
3799 CD24 E506              sta     R2           
3800 CD26 C400              lda     #000H        
3801 CD28 3B53D0            call    F_SendD2AudioByte   
3802 CD2B 3B32D0            call    F_D2AudioACKBit   
3803 CD2E 6506              or      R2           
3804 CD30 E506              sta     R2           
3805 CD32 3B17D0            call    F_D2AudioStopBit   
3806               
3807 CD35 3B06D0            call    F_D2AudioStartBit   
3808 CD38 C498              lda     #098H        
3809 CD3A 3B53D0            call    F_SendD2AudioByte   
3810 CD3D 3B32D0            call    F_D2AudioACKBit   
3811 CD40 6506              or      R2           
3812 CD42 E506              sta     R2           
3813 CD44 C47F              lda     #07fH        
3814 CD46 3B53D0            call    F_SendD2AudioByte   
3815 CD49 3B32D0            call    F_D2AudioACKBit   
3816 CD4C 6506              or      R2           
3817 CD4E E506              sta     R2           
3818 CD50 C400              lda     #000H        
3819 CD52 3B53D0            call    F_SendD2AudioByte   
3820 CD55 3B32D0            call    F_D2AudioACKBit   
3821 CD58 6506              or      R2           
3822 CD5A E506              sta     R2           
3823 CD5C 3B17D0            call    F_D2AudioStopBit   
3824               
3825 CD5F 3B06D0            call    F_D2AudioStartBit   
3826 CD62 C498              lda     #098H        
3827 CD64 3B53D0            call    F_SendD2AudioByte   
3828 CD67 3B32D0            call    F_D2AudioACKBit   
3829 CD6A 6506              or      R2           
3830 CD6C E506              sta     R2           
3831 CD6E C400              lda     #000H        
3832 CD70 3B53D0            call    F_SendD2AudioByte   
3833 CD73 3B32D0            call    F_D2AudioACKBit   
3834 CD76 6506              or      R2           
3835 CD78 E506              sta     R2           
3836 CD7A C400              lda     #000H        
3837 CD7C 3B53D0            call    F_SendD2AudioByte   
3838 CD7F 3B32D0            call    F_D2AudioACKBit   
3839 CD82 6506              or      R2           
3840 CD84 E506              sta     R2           
3841 CD86 3B17D0            call    F_D2AudioStopBit   
3842               
3843 CD89 3B06D0            call    F_D2AudioStartBit   ;for total volume
3844 CD8C C498              lda     #098H        
3845 CD8E 3B53D0            call    F_SendD2AudioByte   
3846 CD91 3B32D0            call    F_D2AudioACKBit   
3847 CD94 6506              or      R2           
3848 CD96 E506              sta     R2           
3849 CD98 C43D              lda     #03DH        
3850 CD9A 3B53D0            call    F_SendD2AudioByte   
3851 CD9D 3B32D0            call    F_D2AudioACKBit   
3852 CDA0 6506              or      R2           
3853 CDA2 E506              sta     R2           
3854 CDA4 C512              lda     R_Volume     
3855 CDA6 CE                xcn                  
3856 CDA7 840F              and     #00FH        
3857 CDA9 3E0A              ldy     #10          
3858 CDAB 5B                mul                  
3859 CDAC E504              sta     R0           
3860 CDAE C512              lda     R_Volume     
3861 CDB0 840F              and     #00FH        
3862 CDB2 20                clrc                 
3863 CDB3 0504              adc     R0           
3864 CDB5 9F                tay                  
3865 CDB6 D519D2            lda     !T_VolumeTable+Y   
3866 CDB9 3B53D0            call    F_SendD2AudioByte   
3867 CDBC 3B32D0            call    F_D2AudioACKBit   
3868 CDBF 6506              or      R2           
3869 CDC1 E506              sta     R2           
3870 CDC3 3B17D0            call    F_D2AudioStopBit   
3871               
3872 CDC6 3B06D0            call    F_D2AudioStartBit   ;for total volume
3873 CDC9 C498              lda     #098H        
3874 CDCB 3B53D0            call    F_SendD2AudioByte   
3875 CDCE 3B32D0            call    F_D2AudioACKBit   
3876 CDD1 6506              or      R2           
3877 CDD3 E506              sta     R2           
3878 CDD5 C43E              lda     #03EH        
3879 CDD7 3B53D0            call    F_SendD2AudioByte   
3880 CDDA 3B32D0            call    F_D2AudioACKBit   
3881 CDDD 6506              or      R2           
3882 CDDF E506              sta     R2           
3883 CDE1 C512              lda     R_Volume     
3884 CDE3 CE                xcn                  
3885 CDE4 840F              and     #00FH        
3886 CDE6 3E0A              ldy     #10          
3887 CDE8 5B                mul                  
3888 CDE9 E504              sta     R0           
3889 CDEB C512              lda     R_Volume     
3890 CDED 840F              and     #00FH        
3891 CDEF 20                clrc                 
3892 CDF0 0504              adc     R0           
3893 CDF2 9F                tay                  
3894 CDF3 D519D2            lda     !T_VolumeTable+Y   
3895 CDF6 3B53D0            call    F_SendD2AudioByte   
3896 CDF9 3B32D0            call    F_D2AudioACKBit   
3897 CDFC 6506              or      R2           
3898 CDFE E506              sta     R2           
3899 CE00 3B17D0            call    F_D2AudioStopBit   
3900 CE03 6F                ret                  
3901               
3902               ;;======================================================================================
3903               ;;
3904               ;;Module Name:	F_SetVolumeMute
3905               ;;
3906               ;;Use:					A,R0,R1,R2
3907               ;;
3908               ;;======================================================================================
3909               F_SetVolumeMute:              
3910 CE04 3B0CCE            call    F_SetVolumeMute_1   
3911 CE07 C506              lda     R2           
3912 CE09 7001              bne     F_SetVolumeMute_1   
3913               L_SetVolumeMute_Exit:         
3914 CE0B 6F                ret                  
3915               
3916               ;;--------------------------------------------------------------------------------------
3917               F_SetVolumeMute_1:            
3918 CE0C E40006            ldm     R2,#0        
3919               
3920 CE0F 3B06D0            call    F_D2AudioStartBit   
3921 CE12 C498              lda     #098H        
3922 CE14 3B53D0            call    F_SendD2AudioByte   
3923 CE17 3B32D0            call    F_D2AudioACKBit   
3924 CE1A 6506              or      R2           
3925 CE1C E506              sta     R2           
3926 CE1E C400              lda     #000H        
3927 CE20 3B53D0            call    F_SendD2AudioByte   
3928 CE23 3B32D0            call    F_D2AudioACKBit   
3929 CE26 6506              or      R2           
3930 CE28 E506              sta     R2           
3931 CE2A C400              lda     #000H        
3932 CE2C 3B53D0            call    F_SendD2AudioByte   
3933 CE2F 3B32D0            call    F_D2AudioACKBit   
3934 CE32 6506              or      R2           
3935 CE34 E506              sta     R2           
3936 CE36 3B17D0            call    F_D2AudioStopBit   
3937               
3938 CE39 3B06D0            call    F_D2AudioStartBit   
3939 CE3C C498              lda     #098H        
3940 CE3E 3B53D0            call    F_SendD2AudioByte   
3941 CE41 3B32D0            call    F_D2AudioACKBit   
3942 CE44 6506              or      R2           
3943 CE46 E506              sta     R2           
3944 CE48 C47F              lda     #07fH        
3945 CE4A 3B53D0            call    F_SendD2AudioByte   
3946 CE4D 3B32D0            call    F_D2AudioACKBit   
3947 CE50 6506              or      R2           
3948 CE52 E506              sta     R2           
3949 CE54 C400              lda     #000H        
3950 CE56 3B53D0            call    F_SendD2AudioByte   
3951 CE59 3B32D0            call    F_D2AudioACKBit   
3952 CE5C 6506              or      R2           
3953 CE5E E506              sta     R2           
3954 CE60 3B17D0            call    F_D2AudioStopBit   
3955               
3956 CE63 3B06D0            call    F_D2AudioStartBit   
3957 CE66 C498              lda     #098H        
3958 CE68 3B53D0            call    F_SendD2AudioByte   
3959 CE6B 3B32D0            call    F_D2AudioACKBit   
3960 CE6E 6506              or      R2           
3961 CE70 E506              sta     R2           
3962 CE72 C400              lda     #000H        
3963 CE74 3B53D0            call    F_SendD2AudioByte   
3964 CE77 3B32D0            call    F_D2AudioACKBit   
3965 CE7A 6506              or      R2           
3966 CE7C E506              sta     R2           
3967 CE7E C400              lda     #000H        
3968 CE80 3B53D0            call    F_SendD2AudioByte   
3969 CE83 3B32D0            call    F_D2AudioACKBit   
3970 CE86 6506              or      R2           
3971 CE88 E506              sta     R2           
3972 CE8A 3B17D0            call    F_D2AudioStopBit   
3973               
3974 CE8D 3B06D0            call    F_D2AudioStartBit   ;for total volume mute
3975 CE90 C498              lda     #098H        
3976 CE92 3B53D0            call    F_SendD2AudioByte   
3977 CE95 3B32D0            call    F_D2AudioACKBit   
3978 CE98 6506              or      R2           
3979 CE9A E506              sta     R2           
3980 CE9C C43D              lda     #03DH        
3981 CE9E 3B53D0            call    F_SendD2AudioByte   
3982 CEA1 3B32D0            call    F_D2AudioACKBit   
3983 CEA4 6506              or      R2           
3984 CEA6 E506              sta     R2           
3985 CEA8 C4FF              lda     #0FFH        
3986 CEAA 3B53D0            call    F_SendD2AudioByte   
3987 CEAD 3B32D0            call    F_D2AudioACKBit   
3988 CEB0 6506              or      R2           
3989 CEB2 E506              sta     R2           
3990 CEB4 3B17D0            call    F_D2AudioStopBit   
3991               
3992 CEB7 3B06D0            call    F_D2AudioStartBit   ;for total volume mute
3993 CEBA C498              lda     #098H        
3994 CEBC 3B53D0            call    F_SendD2AudioByte   
3995 CEBF 3B32D0            call    F_D2AudioACKBit   
3996 CEC2 6506              or      R2           
3997 CEC4 E506              sta     R2           
3998 CEC6 C43E              lda     #03EH        
3999 CEC8 3B53D0            call    F_SendD2AudioByte   
4000 CECB 3B32D0            call    F_D2AudioACKBit   
4001 CECE 6506              or      R2           
4002 CED0 E506              sta     R2           
4003 CED2 C4FF              lda     #0FFH        
4004 CED4 3B53D0            call    F_SendD2AudioByte   
4005 CED7 3B32D0            call    F_D2AudioACKBit   
4006 CEDA 6506              or      R2           
4007 CEDC E506              sta     R2           
4008 CEDE 3B17D0            call    F_D2AudioStopBit   
4009 CEE1 6F                ret                  
4010               
4011               ;;======================================================================================
4012               ;;
4013               ;;Module Name:	F_SetVolumeChannel
4014               ;;
4015               ;;Use:					A,R0,R1,R2
4016               ;;
4017               ;;=====================================================================================
4018               F_SetVolumeChannel:           
4019 CEE2 D1C1              clr1    R_TC4052A.B_TC4052A   
4020 CEE4 F1C1              clr1    R_TC4052B.B_TC4052B   
4021 CEE6 91C0              clr1    R_MixCtrl.B_MixCtrl   
4022 CEE8 C50E              lda     R_MainMode   
4023 CEEA F00E              beq     L_SetVolumeChannel_Exit   
4024 CEEC 4402              cmp     #C_AuxMode   
4025 CEEE F00B              beq     L_SetAuxChannel   
4026 CEF0 4403              cmp     #C_OpticalMode   
4027 CEF2 F018              beq     L_SetOpticalChannel   
4028               L_SetBTChannel:               
4029 CEF4 C1C1              set1    R_TC4052A.B_TC4052A   
4030 CEF6 F1C1              clr1    R_TC4052B.B_TC4052B   
4031 CEF8 91C0              clr1    R_MixCtrl.B_MixCtrl   
4032               L_SetVolumeChannel_Exit:      
4033 CEFA 6F                ret                  
4034               
4035               L_SetAuxChannel:              
4036 CEFB E30C07            bbs     R_Flag.B_RCAMode,L_SetRCAChannel   
4037 CEFE D1C1              clr1    R_TC4052A.B_TC4052A   
4038 CF00 E1C1              set1    R_TC4052B.B_TC4052B   
4039 CF02 91C0              clr1    R_MixCtrl.B_MixCtrl   
4040 CF04 6F                ret                  
4041               
4042               L_SetRCAChannel:              
4043 CF05 D1C1              clr1    R_TC4052A.B_TC4052A   
4044 CF07 F1C1              clr1    R_TC4052B.B_TC4052B   
4045 CF09 91C0              clr1    R_MixCtrl.B_MixCtrl   
4046 CF0B 6F                ret                  
4047               
4048               L_SetOpticalChannel:          
4049 CF0C D1C1              clr1    R_TC4052A.B_TC4052A   
4050 CF0E E1C1              set1    R_TC4052B.B_TC4052B   
4051 CF10 81C0              set1    R_MixCtrl.B_MixCtrl   
4052 CF12 6F                ret                  
4053               
4054               ;;====================================================================================
4055               ;;
4056               ;;Module Name:	F_PowerOnAmplify
4057               ;;
4058               ;;====================================================================================
4059               F_PowerOnAmplify:             
4060 CF13 3B03C2            call    !WDTC        
4061 CF16 21C5              set1    R_TAS5713Power.B_TAS5713Power   
4062 CF18 31C5              clr1    R_TAS5713Reset.B_TAS5713Reset   
4063 CF1A C403              lda     #3           
4064 CF1C 3BDCC1            call    F_Delay7_8125ms   
4065 CF1F 21C5              set1    R_TAS5713Reset.B_TAS5713Reset   
4066 CF21 C405              lda     #5           
4067 CF23 3BDCC1            call    F_Delay7_8125ms   
4068 CF26 3B4ECF            call    F_TAS5713OSCOn   
4069 CF29 C40A              lda     #10          
4070 CF2B 3BDCC1            call    F_Delay7_8125ms   
4071 CF2E 3B83CF            call    F_InitialTAS5713   
4072 CF31 C403              lda     #3           
4073 CF33 3BDCC1            call    F_Delay7_8125ms   
4074               L_PowerOnAmplify_Exit:        
4075 CF36 6F                ret                  
4076               
4077               ;;====================================================================================
4078               ;;
4079               ;;Module Name:	F_PowerOffAmplify
4080               ;;
4081               ;;====================================================================================
4082               F_PowerOffAmplify:            
4083 CF37 3BD1CF            call    F_ShutDownTAS5713   
4084 CF3A C405              lda     #05          
4085 CF3C 3BDCC1            call    F_Delay7_8125ms   
4086 CF3F 31C5              clr1    R_TAS5713Reset.B_TAS5713Reset   
4087 CF41 C402              lda     #2           
4088 CF43 3BDCC1            call    F_Delay7_8125ms   
4089 CF46 31C5              clr1    R_TAS5713Power.B_TAS5713Power   
4090 CF48 C40A              lda     #10          
4091 CF4A 3BDCC1            call    F_Delay7_8125ms   
4092               L_PowerOffAmplify_Exit:       
4093 CF4D 6F                ret                  
4094               
4095               ;;====================================================================================
4096               ;;
4097               ;;Module Name:	F_TAS5713OSCOn
4098               ;;
4099               ;;====================================================================================
4100               F_TAS5713OSCOn:               
4101 CF4E 3B55CF            call    L_TAS5713OSCOn   
4102 CF51 C506              lda     R2           
4103 CF53 F02D              beq     L_TAS5713OSCOn_Exit   
4104               
4105               L_TAS5713OSCOn:               
4106 CF55 E40006            ldm     R2,#0        
4107               
4108 CF58 3B06D0            call    F_D2AudioStartBit   
4109 CF5B C498              lda     #098H        
4110 CF5D 3B53D0            call    F_SendD2AudioByte   
4111 CF60 3B32D0            call    F_D2AudioACKBit   
4112 CF63 6506              or      R2           
4113 CF65 E506              sta     R2           
4114 CF67 C400              lda     #000H        
4115 CF69 3B53D0            call    F_SendD2AudioByte   
4116 CF6C 3B32D0            call    F_D2AudioACKBit   
4117 CF6F 6506              or      R2           
4118 CF71 E506              sta     R2           
4119 CF73 C400              lda     #000H        
4120 CF75 3B53D0            call    F_SendD2AudioByte   
4121 CF78 3B32D0            call    F_D2AudioACKBit   
4122 CF7B 6506              or      R2           
4123 CF7D E506              sta     R2           
4124 CF7F 3B17D0            call    F_D2AudioStopBit   
4125               
4126               ;	call	F_D2AudioStartBit						
4127               ;	lda	#098H
4128               ;	call	F_SendD2AudioByte
4129               ;	call	F_D2AudioACKBit
4130               ;	or	R2
4131               ;	sta	R2
4132               ;	lda	#01BH
4133               ;	call	F_SendD2AudioByte
4134               ;	call	F_D2AudioACKBit
4135               ;	or	R2
4136               ;	sta	R2
4137               ;	lda	#000H
4138               ;	call	F_SendD2AudioByte
4139               ;	call	F_D2AudioACKBit
4140               ;	or	R2
4141               ;	sta	R2
4142               ;	call	F_D2AudioStopBit
4143               L_TAS5713OSCOn_Exit:          
4144 CF82 6F                ret                  
4145               
4146               ;;====================================================================================
4147               ;;
4148               ;;Module Name:	F_InitialTAS5713
4149               ;;
4150               ;;Use:					A,Y,X,R0~R3,dpmain,dpmain+1
4151               ;;
4152               ;;====================================================================================
4153               F_InitialTAS5713:             
4154 CF83 3B8BCF            call    L_InitialTAS5713   
4155 CF86 C506              lda     R2           
4156 CF88 7001              bne     L_InitialTAS5713   
4157               L_InitialTAS5713_Exit:        
4158 CF8A 6F                ret                  
4159               
4160               L_InitialTAS5713:             
4161 CF8B E40006            ldm     R2,#0        
4162               
4163 CF8E 1E00              ldx     #0           
4164 CF90 E43802            ldm     dpmain,#<T_InitialTAS5713StartTable   
4165 CF93 E4D203            ldm     dpmain+1,#>T_InitialTAS5713StartTable   
4166               L_InitialTAS5713_Loop:        
4167 CF96 3B03C2            call    WDTC         
4168 CF99 3B06D0            call    F_D2AudioStartBit   
4169 CF9C C498              lda     #098H        
4170 CF9E 3B53D0            call    F_SendD2AudioByte   
4171 CFA1 3B32D0            call    F_D2AudioACKBit   
4172 CFA4 6506              or      R2           
4173 CFA6 E506              sta     R2           
4174               ;	lda [dpmain+X]
4175 CFA8 C402              lda     #2           
4176 CFAA E507              sta     R3           
4177               ;	inc	dpmain
4178               ;	bne	L_InitialTAS5713_Reg
4179               ;	inc	(dpmain+1)
4180               L_InitialTAS5713_Reg:         
4181 CFAC D602              lda     [dpmain+X]   
4182 CFAE 3B53D0            call    F_SendD2AudioByte   
4183 CFB1 3B32D0            call    F_D2AudioACKBit   
4184 CFB4 6506              or      R2           
4185 CFB6 E506              sta     R2           
4186 CFB8 8902              inc     dpmain       
4187 CFBA 7002              bne     L_InitialTAS5713_Skip   
4188 CFBC 8903              inc     (dpmain+1)   
4189               L_InitialTAS5713_Skip:        
4190 CFBE A907              dec     R3           
4191 CFC0 70EA              bne     L_InitialTAS5713_Reg   
4192 CFC2 3B17D0            call    F_D2AudioStopBit   
4193 CFC5 A0                setc                 
4194 CFC6 C502              lda     dpmain       
4195 CFC8 249A              sbc     #<T_InitialTAS5713EndTable   
4196 CFCA C503              lda     dpmain+1     
4197 CFCC 24F4              sbc     #>T_InitialTAS5713EndTable   
4198 CFCE 50C6              bcc     L_InitialTAS5713_Loop   
4199 CFD0 6F                ret                  
4200               
4201               ;;====================================================================================
4202               ;;
4203               ;;Module Name:	F_ShutDownTAS5713
4204               ;;
4205               ;;====================================================================================
4206               F_ShutDownTAS5713:            
4207 CFD1 3BD8CF            call    L_ShutDownTAS5713   
4208 CFD4 C506              lda     R2           
4209 CFD6 F02D              beq     L_ShutDownTAS5713_Exit   
4210               
4211               L_ShutDownTAS5713:            
4212 CFD8 E40006            ldm     R2,#0        
4213               
4214 CFDB 3B06D0            call    F_D2AudioStartBit   
4215 CFDE C498              lda     #098H        
4216 CFE0 3B53D0            call    F_SendD2AudioByte   
4217 CFE3 3B32D0            call    F_D2AudioACKBit   
4218 CFE6 6506              or      R2           
4219 CFE8 E506              sta     R2           
4220 CFEA C400              lda     #000H        
4221 CFEC 3B53D0            call    F_SendD2AudioByte   
4222 CFEF 3B32D0            call    F_D2AudioACKBit   
4223 CFF2 6506              or      R2           
4224 CFF4 E506              sta     R2           
4225 CFF6 C400              lda     #000H        
4226 CFF8 3B53D0            call    F_SendD2AudioByte   
4227 CFFB 3B32D0            call    F_D2AudioACKBit   
4228 CFFE 6506              or      R2           
4229 D000 E506              sta     R2           
4230 D002 3B17D0            call    F_D2AudioStopBit   
4231               
4232               ;	call	F_D2AudioStartBit						
4233               ;	lda	#098H
4234               ;	call	F_SendD2AudioByte
4235               ;	call	F_D2AudioACKBit
4236               ;	or	R2
4237               ;	sta	R2
4238               ;	lda	#005H
4239               ;	call	F_SendD2AudioByte
4240               ;	call	F_D2AudioACKBit
4241               ;	or	R2
4242               ;	sta	R2
4243               ;	lda	#040H
4244               ;	call	F_SendD2AudioByte
4245               ;	call	F_D2AudioACKBit
4246               ;	or	R2
4247               ;	sta	R2
4248               ;	call	F_D2AudioStopBit
4249               L_ShutDownTAS5713_Exit:       
4250 D005 6F                ret                  
4251               
4252               ;;====================================================================================
4253               ;;
4254               ;;Module Name: F_D2AudioStartBit
4255               ;;
4256               ;;Describe:	CK=P0.4
4257               ;;		DA=P0.5
4258               ;;
4259               ;;====================================================================================
4260               F_D2AudioStartBit:            
4261 D006 D1C2              clr1    R_D2AudioDAO.B_D2AudioDAO   
4262 D008 3B69D0            call    F_DelayD2Audio   
4263 D00B 3B69D0            call    F_DelayD2Audio   
4264 D00E B1C2              clr1    R_D2AudioCK.B_D2AudioCK   
4265 D010 3B69D0            call    F_DelayD2Audio   
4266 D013 3B69D0            call    F_DelayD2Audio   
4267               L_D2AudioStartBit_Exit:       
4268 D016 6F                ret                  
4269               
4270               ;;====================================================================================
4271               ;;
4272               ;;Module Name:	F_D2AudioStopBit
4273               ;;
4274               ;;Describe:	CK=P0.4
4275               ;;		DA=P0.5
4276               ;;
4277               ;;====================================================================================
4278               F_D2AudioStopBit:             
4279 D017 B1C2              clr1    R_D2AudioCK.B_D2AudioCK   
4280 D019 3B69D0            call    F_DelayD2Audio   
4281 D01C D1C2              clr1    R_D2AudioDAO.B_D2AudioDAO   
4282 D01E 3B69D0            call    F_DelayD2Audio   
4283 D021 A1C2              set1    R_D2AudioCK.B_D2AudioCK   
4284 D023 3B69D0            call    F_DelayD2Audio   
4285 D026 3B69D0            call    F_DelayD2Audio   
4286 D029 C1C2              set1    R_D2AudioDAO.B_D2AudioDAO   
4287 D02B 3B69D0            call    F_DelayD2Audio   
4288 D02E 3B69D0            call    F_DelayD2Audio   
4289               L_D2AudioStopBit_Exit:        
4290 D031 6F                ret                  
4291               
4292               ;;=====================================================================================
4293               ;;
4294               ;;Module Name:	F_D2AudioACKBit
4295               ;;
4296               ;;Output:	ACC.0(ACK)
4297               ;;
4298               ;;Use:		A
4299               ;;
4300               ;;=====================================================================================
4301               F_D2AudioACKBit:              
4302 D032 C5D9              lda     R_D2AudioDAIO   
4303 D034 84CF              and     #C_D2AudioDAIOMask   
4304 D036 6400              or      #C_D2AudioDAIOInput   
4305 D038 E5D9              sta     R_D2AudioDAIO   
4306               ;	call   F_DelayD2Audio
4307 D03A A1C2              set1    R_D2AudioCK.B_D2AudioCK   
4308               ;	call   F_DelayD2Audio
4309 D03C 3B69D0            call    F_DelayD2Audio   
4310 D03F C400              lda     #0           
4311 D041 D3C202            bbc     R_D2AudioDAI.B_D2AudioDAI,L_GetD2AudioACKBit   
4312 D044 C401              lda     #1           
4313               L_GetD2AudioACKBit:           
4314               ;	call   F_DelayD2Audio
4315               ;	call   F_DelayD2Audio
4316 D046 B1C2              clr1    R_D2AudioCK.B_D2AudioCK   
4317               ;	call   F_DelayD2Audio
4318 D048 0E                push    A            
4319 D049 C5D9              lda     R_D2AudioDAIO   
4320 D04B 84CF              and     #C_D2AudioDAIOMask   
4321 D04D 6410              or      #C_D2AudioDAIOOutput   
4322 D04F E5D9              sta     R_D2AudioDAIO   
4323               ;	call   F_DelayD2Audio
4324 D051 0D                pop     A            
4325               L_D2AudioACKBit_Exit:         
4326 D052 6F                ret                  
4327               
4328               ;;==============================================================================================
4329               ;;
4330               ;;Module Name:	F_SendD2AudioByte
4331               ;;
4332               ;;Input:		A
4333               ;;
4334               ;;Describe:		CK=P0.4
4335               ;;				DA=P0.5
4336               ;;
4337               ;;Use:			A,R0,R1
4338               ;;
4339               ;;==============================================================================================
4340               F_SendD2AudioByte:            
4341 D053 E505              sta     R1           
4342 D055 E40804            ldm     R0,#8        
4343               L_SendD2AudioByte_Loop:       
4344 D058 0905              asl     R1           
4345               ;	bcs	L_SendD2AudioByte_One
4346               ;L_SendD2AudioByte_Zero:
4347               ;	clr1	R_D2AudioDAO.B_D2AudioDAO
4348               ;	jmp	L_SendD2AudioByte
4349               ;L_SendD2AudioByte_One:
4350               ;	set1	R_D2AudioDAO.B_D2AudioDAO
4351               ;L_SendD2AudioByte:
4352 D05A EBC2D0            stc     R_D2AudioDAO.B_D2AudioDAO   
4353               ;	call   F_DelayD2Audio
4354 D05D A1C2              set1    R_D2AudioCK.B_D2AudioCK   
4355 D05F 3B69D0            call    F_DelayD2Audio   
4356 D062 B1C2              clr1    R_D2AudioCK.B_D2AudioCK   
4357               ;	call   F_DelayD2Audio
4358 D064 A904              dec     R0           
4359 D066 70F0              bne     L_SendD2AudioByte_Loop   
4360               L_SendD2AudioByte_Exit:       
4361 D068 6F                ret                  
4362               
4363               ;;=====================================================================================
4364               F_DelayD2Audio:               
4365               ;	nop
4366               ;	nop
4367               ;	nop
4368               ;	nop	
4369               ;	nop
4370               ;	nop
4371               L_DelayD2Audio_Exit:          
4372 D069 6F                ret                  
4373               ;
4374               ;
4375               ;;
4376               ;;
4377                        include  led.asm      
4378               ;;===============================================================================
4379               ;;
4380               ;;Module Name:	F_DisplayLed
4381               ;;
4382               ;;===============================================================================
4383               F_DisplayLed:                 
4384 D06A C50E              lda     R_MainMode   
4385 D06C 7007              bne     L_DisplayLed   
4386               
4387               F_PowerOffLed:                
4388 D06E A1C1              set1    R_BTLedCtrl.B_BTLedCtrl   
4389 D070 81C1              set1    R_AuxLedCtrl.B_AuxLedCtrl   
4390 D072 01C1              set1    R_OpticalLedCtrl.B_OpticalLedCtrl   
4391               L_DisplayLed_Exit:            
4392 D074 6F                ret                  
4393               
4394               L_DisplayLed:                 
4395 D075 C50E              lda     R_MainMode   
4396 D077 4401              cmp     #C_BTMode    
4397 D079 F015              beq     L_DisplayBTMode   
4398 D07B 4403              cmp     #C_OpticalMode   
4399 D07D F018              beq     L_DisplayOpticalMode   
4400               L_DisplayAuxMode:             
4401 D07F E30C07            bbs     R_Flag.B_RCAMode,L_DisplayRCAMode   
4402 D082 A1C1              set1    R_BTLedCtrl.B_BTLedCtrl   
4403 D084 91C1              clr1    R_AuxLedCtrl.B_AuxLedCtrl   
4404 D086 01C1              set1    R_OpticalLedCtrl.B_OpticalLedCtrl   
4405 D088 6F                ret                  
4406               
4407               L_DisplayRCAMode:             
4408 D089 B1C1              clr1    R_BTLedCtrl.B_BTLedCtrl   
4409 D08B 81C1              set1    R_AuxLedCtrl.B_AuxLedCtrl   
4410 D08D 11C1              clr1    R_OpticalLedCtrl.B_OpticalLedCtrl   
4411 D08F 6F                ret                  
4412               
4413               L_DisplayBTMode:              
4414 D090 B1C1              clr1    R_BTLedCtrl.B_BTLedCtrl   
4415 D092 81C1              set1    R_AuxLedCtrl.B_AuxLedCtrl   
4416 D094 01C1              set1    R_OpticalLedCtrl.B_OpticalLedCtrl   
4417 D096 6F                ret                  
4418               
4419               L_DisplayOpticalMode:         
4420 D097 B1C1              clr1    R_BTLedCtrl.B_BTLedCtrl   
4421 D099 91C1              clr1    R_AuxLedCtrl.B_AuxLedCtrl   
4422 D09B 11C1              clr1    R_OpticalLedCtrl.B_OpticalLedCtrl   
4423 D09D 6F                ret                  
4424               
4425               ;;===========================================================================================
4426               ;;
4427               ;;Module Name:	F_DisplayLcd
4428               ;;
4429               ;;===========================================================================================
4430               F_DisplayLcd:                 
4431               
4432               L_DisplayLcd_Exit:            
4433 D09E 6F                ret                  
4434               
4435               ;;==========================================================================
4436               ;;
4437               ;;Module Name:	F_DisplayBTLed
4438               ;;
4439               ;;==========================================================================
4440               F_DisplayBTLed:               
4441 D09F 8942              inc     R_BTLedTime   
4442 D0A1 C542              lda     R_BTLedTime   
4443 D0A3 4440              cmp     #64          
4444 D0A5 5003              bcc     L_DisplayBTLed   
4445 D0A7 E40042            ldm     R_BTLedTime,#0   
4446               L_DisplayBTLed:               
4447 D0AA C50E              lda     R_MainMode   
4448 D0AC 4401              cmp     #C_BTMode    
4449 D0AE 7021              bne     L_DisplayBTLed_Exit   
4450 D0B0 C510              lda     R_SetTimeFlag   
4451 D0B2 4401              cmp     #C_SetVolume   
4452 D0B4 F01B              beq     L_DisplayBTLed_Exit   
4453 D0B6 4403              cmp     #C_SetTreble   
4454 D0B8 F017              beq     L_DisplayBTLed_Exit   
4455 D0BA 4402              cmp     #C_SetBass   
4456 D0BC F013              beq     L_DisplayBTLed_Exit   
4457 D0BE 230D10            bbs     R_Flag1.B_MuteFlag,L_DisplayBTLed_Exit   
4458               
4459 D0C1 03C00B            bbs     R_BTSleepDetect.B_BTSleepDetect,L_DisplayBTLed_End   
4460 D0C4 C542              lda     R_BTLedTime   
4461 D0C6 4420              cmp     #32          
4462 D0C8 5005              bcc     L_DisplayBTLed_End   
4463 D0CA A1C1              set1    R_BTLedCtrl.B_BTLedCtrl   
4464 D0CC 1BD1D0            jmp     L_DisplayBTLed_Exit   
4465               L_DisplayBTLed_End:           
4466 D0CF B1C1              clr1    R_BTLedCtrl.B_BTLedCtrl   
4467               L_DisplayBTLed_Exit:          
4468 D0D1 6F                ret                  
4469               ;
4470               ;
4471               ;;
4472               ;;
4473                        include  bt.asm       
4474               ;;=======================================================================================
4475               ;;
4476               ;;Module Name:	F_PowerOnBT
4477               ;;
4478               ;;=======================================================================================
4479               F_PowerOnBT:                  
4480 D0D2 61C0              set1    R_BTPowerCtrl.B_BTPowerCtrl   
4481 D0D4 C40F              lda     #15          
4482 D0D6 3BDCC1            call    F_Delay7_8125ms   
4483               L_PowerOnBT_Exit:             
4484 D0D9 6F                ret                  
4485               
4486               ;;=======================================================================================
4487               ;;
4488               ;;Module Name:	F_PowerOffBT
4489               ;;
4490               ;;=======================================================================================
4491               F_PowerOffBT:                 
4492 D0DA C50E              lda     R_MainMode   
4493 D0DC 4401              cmp     #C_BTMode    
4494 D0DE 7007              bne     L_PowerOffBT_Exit   
4495 D0E0 71C0              clr1    R_BTPowerCtrl.B_BTPowerCtrl   
4496 D0E2 C40F              lda     #15          
4497 D0E4 3BDCC1            call    F_Delay7_8125ms   
4498               L_PowerOffBT_Exit:            
4499 D0E7 6F                ret                  
4500               ;
4501               ;
4502               ;;
4503               ;;
4504                        include  optical.asm   
4505               ;;=================================================================================
4506               ;;
4507               ;;Module Name:	F_PowerOnOptical
4508               ;;
4509               ;;=================================================================================
4510               F_PowerOnOptical:             
4511               ;	set1 R_AuxLedCtrl.B_AuxLedCtrl
4512 D0E8 E3C209            bbs     R_StandbyCtrl.B_StandbyCtrl,L_PowerOnMute   
4513               ;  set1 R_OpticalLedCtrl.B_OpticalLedCtrl
4514               ;  set1 R_AuxLedCtrl.B_AuxLedCtrl
4515               ;  set1 R_BTLedCtrl.B_BTLedCtrl
4516 D0EB D30D23            bbc     R_Flag1.B_AudioIn,L_PowerOnOptical_Exit   
4517               ;	set1 R_OpticalLedCtrl.B_OpticalLedCtrl
4518 D0EE 3BADC1            call    F_InitialSystem   
4519 D0F1 1B39C0            jmp     Main_Loop    
4520               
4521               L_PowerOnMute:                
4522 D0F4 D30D04            bbc     R_Flag1.B_AudioIn,L_PowerOnSignal   
4523 D0F7 3BEECC            call    F_MuteOffCtrl   
4524 D0FA 6F                ret                  
4525               
4526               L_PowerOnSignal:              
4527 D0FB 892C              inc     R_OpticalSleepCounterTime   
4528 D0FD C52C              lda     R_OpticalSleepCounterTime   
4529 D0FF 44FA              cmp     #250         
4530 D101 50F1              bcc     L_PowerOnMute   
4531 D103 892B              inc     R_OpticalSleepCounter   
4532 D105 C52B              lda     R_OpticalSleepCounter   
4533 D107 4464              cmp     #C_MuteTime   
4534 D109 50E9              bcc     L_PowerOnMute   
4535 D10B E4002B            ldm     R_OpticalSleepCounter,#0   
4536 D10E 3BF5CC            call    F_MuteOnCtrl   
4537               
4538               L_PowerOnOptical_Exit:        
4539 D111 3BF5CC            call    F_MuteOnCtrl   
4540 D114 6F                ret                  
4541               
4542               ;;=================================================================================
4543               ;;
4544               ;;Module Name:	F_PowerOffOptical
4545               ;;
4546               ;;=================================================================================
4547               F_PowerOffOptical:            
4548               L_PowerOffOptical_Exit:       
4549 D115 6F                ret                  
4550               ;
4551               ;
4552               ;;
4553               ;;
4554               
4555                        include  key.tab      
4556               ;;====================================================================================
4557                        #IF     IRFunction   
4558               T_GetIRKeyValue:              
4559 D116 00                db      00           ;
4560 D117 00                db      00           ;0
4561 D118 00                db      00           ;1
4562 D119 00                db      00           ;2
4563 D11A 00                db      00           ;3
4564 D11B 00                db      00           ;4
4565 D11C 00                db      00           ;5
4566 D11D 00                db      00           ;6
4567 D11E 00                db      00           ;7
4568 D11F 00                db      00           ;8
4569 D120 00                db      00           ;9
4570 D121 00                db      00           ;a
4571 D122 00                db      00           ;b
4572 D123 00                db      00           ;c
4573 D124 00                db      00           ;d
4574 D125 00                db      00           ;e
4575 D126 00                db      00           ;f
4576 D127 00                db      00           ;10
4577 D128 00                db      00           ;11
4578 D129 02                db      02           ;12
4579 D12A 03                db      03           ;13
4580 D12B 01                db      01           ;14
4581 D12C 04                db      04           ;15
4582 D12D 00                db      00           ;16
4583 D12E 00                db      00           ;17
4584 D12F 00                db      00           ;18
4585 D130 00                db      00           ;19
4586 D131 00                db      00           ;1a
4587 D132 00                db      00           ;1b
4588 D133 00                db      00           ;1c
4589 D134 00                db      00           ;1d
4590 D135 00                db      00           ;1e
4591 D136 00                db      00           ;1f
4592 D137 00                db      00           ;20
4593 D138 00                db      00           ;21
4594 D139 00                db      00           ;22
4595 D13A 00                db      00           ;23
4596 D13B 00                db      00           ;24
4597 D13C 00                db      00           ;25
4598 D13D 00                db      00           ;26
4599 D13E 00                db      00           ;27
4600 D13F 00                db      00           ;28
4601 D140 00                db      00           ;29
4602 D141 00                db      00           ;2a
4603 D142 00                db      00           ;2b
4604 D143 00                db      00           ;2c
4605 D144 00                db      00           ;2d
4606 D145 00                db      00           ;2e
4607 D146 00                db      00           ;2f
4608 D147 00                db      00           ;30
4609 D148 00                db      00           ;31
4610 D149 00                db      00           ;32
4611 D14A 00                db      00           ;33
4612 D14B 00                db      00           ;34
4613 D14C 00                db      00           ;35
4614 D14D 00                db      00           ;36
4615 D14E 00                db      00           ;37
4616 D14F 00                db      00           ;38
4617 D150 00                db      00           ;39
4618 D151 00                db      00           ;3a
4619 D152 00                db      00           ;3b
4620 D153 00                db      00           ;3c
4621 D154 00                db      00           ;3d
4622 D155 00                db      00           ;3e
4623 D156 00                db      00           ;3f
4624 D157 00                db      00           ;40
4625 D158 05                db      05           ;41
4626 D159 00                db      00           ;42
4627 D15A 00                db      00           ;43
4628 D15B 00                db      00           ;44
4629 D15C 00                db      00           ;45
4630 D15D 00                db      00           ;46
4631 D15E 00                db      00           ;47
4632 D15F 00                db      00           ;48
4633 D160 00                db      00           ;49
4634 D161 1B                db      27           ;4a
4635 D162 19                db      25           ;4b
4636 D163 1A                db      26           ;4c
4637 D164 00                db      00           ;4d
4638 D165 00                db      00           ;4e
4639 D166 00                db      00           ;4f
4640 D167 00                db      00           ;50
4641 D168 00                db      00           ;51
4642 D169 00                db      00           ;52
4643 D16A 00                db      00           ;53
4644 D16B 00                db      00           ;54
4645 D16C 00                db      00           ;55
4646 D16D 00                db      00           ;56
4647 D16E 00                db      00           ;57
4648 D16F 00                db      00           ;58
4649 D170 00                db      00           ;59
4650 D171 00                db      00           ;5a
4651 D172 00                db      00           ;5b
4652 D173 00                db      00           ;5c
4653 D174 00                db      00           ;5d
4654 D175 00                db      00           ;5e
4655 D176 00                db      00           ;5f
4656 D177 00                db      00           ;60
4657                        #ENDIF               
4658               
4659               ;;====================================================================================
4660               T_GetKeyColValue:             
4661 D178 00                db      00000000B    ;
4662 D179 00                db      00000000B    
4663 D17A 00                db      00000000B    
4664 D17B 00                db      00000000B    
4665 D17C 01                db      00000001B    ;1
4666 D17D 00                db      00000000B    
4667 D17E 00                db      00000000B    
4668 D17F 00                db      00000000B    
4669 D180 02                db      00000010B    ;2
4670 D181 00                db      00000000B    
4671 D182 00                db      00000000B    
4672 D183 00                db      00000000B    
4673 D184 04                db      00000100B    ;3
4674 D185 00                db      00000000B    
4675 D186 00                db      00000000B    
4676 D187 00                db      00000000B    
4677 D188 08                db      00001000B    ;4
4678 D189 00                db      00000000B    
4679 D18A 00                db      00000000B    
4680 D18B 00                db      00000000B    
4681 D18C 10                db      00010000B    ;5
4682 D18D 00                db      00000000B    
4683 D18E 00                db      00000000B    
4684 D18F 00                db      00000000B    
4685 D190 20                db      00100000B    ;6
4686 D191 00                db      00000000B    
4687 D192 00                db      00000000B    
4688 D193 00                db      00000000B    
4689 D194 40                db      01000000B    ;7
4690 D195 00                db      00000000B    
4691 D196 00                db      00000000B    
4692 D197 00                db      00000000B    
4693 D198 80                db      10000000B    ;8
4694 D199 00                db      00000000B    
4695 D19A 00                db      00000000B    
4696 D19B 00                db      00000000B    
4697 D19C 00                db      00000000B    ;9
4698 D19D 01                db      00000001B    
4699 D19E 00                db      00000000B    
4700 D19F 00                db      00000000B    
4701 D1A0 00                db      00000000B    ;10
4702 D1A1 02                db      00000010B    
4703 D1A2 00                db      00000000B    
4704 D1A3 00                db      00000000B    
4705 D1A4 00                db      00000000B    ;11
4706 D1A5 04                db      00000100B    
4707 D1A6 00                db      00000000B    
4708 D1A7 00                db      00000000B    
4709 D1A8 00                db      00000000B    ;12
4710 D1A9 08                db      00001000B    
4711 D1AA 00                db      00000000B    
4712 D1AB 00                db      00000000B    
4713 D1AC 00                db      00000000B    ;13
4714 D1AD 10                db      00010000B    
4715 D1AE 00                db      00000000B    
4716 D1AF 00                db      00000000B    
4717 D1B0 00                db      00000000B    ;14
4718 D1B1 20                db      00100000B    
4719 D1B2 00                db      00000000B    
4720 D1B3 00                db      00000000B    
4721 D1B4 00                db      00000000B    ;15
4722 D1B5 40                db      01000000B    
4723 D1B6 00                db      00000000B    
4724 D1B7 00                db      00000000B    
4725 D1B8 00                db      00000000B    ;16
4726 D1B9 80                db      10000000B    
4727 D1BA 00                db      00000000B    
4728 D1BB 00                db      00000000B    
4729 D1BC 00                db      00000000B    ;17
4730 D1BD 00                db      00000000B    
4731 D1BE 01                db      00000001B    
4732 D1BF 00                db      00000000B    
4733 D1C0 00                db      00000000B    ;18
4734 D1C1 00                db      00000000B    
4735 D1C2 02                db      00000010B    
4736 D1C3 00                db      00000000B    
4737 D1C4 00                db      00000000B    ;19
4738 D1C5 00                db      00000000B    
4739 D1C6 04                db      00000100B    
4740 D1C7 00                db      00000000B    
4741 D1C8 00                db      00000000B    ;20
4742 D1C9 00                db      00000000B    
4743 D1CA 08                db      00001000B    
4744 D1CB 00                db      00000000B    
4745 D1CC 00                db      00000000B    ;21
4746 D1CD 00                db      00000000B    
4747 D1CE 10                db      00010000B    
4748 D1CF 00                db      00000000B    
4749 D1D0 00                db      00000000B    ;22
4750 D1D1 00                db      00000000B    
4751 D1D2 20                db      00100000B    
4752 D1D3 00                db      00000000B    
4753 D1D4 00                db      00000000B    ;23
4754 D1D5 00                db      00000000B    
4755 D1D6 40                db      01000000B    
4756 D1D7 00                db      00000000B    
4757 D1D8 00                db      00000000B    ;24
4758 D1D9 00                db      00000000B    
4759 D1DA 80                db      10000000B    
4760 D1DB 00                db      00000000B    
4761 D1DC 00                db      00000000B    ;25
4762 D1DD 00                db      00000000B    
4763 D1DE 00                db      00000000B    
4764 D1DF 01                db      00000001B    
4765 D1E0 00                db      00000000B    ;26
4766 D1E1 00                db      00000000B    
4767 D1E2 00                db      00000000B    
4768 D1E3 02                db      00000010B    
4769 D1E4 00                db      00000000B    ;27
4770 D1E5 00                db      00000000B    
4771 D1E6 00                db      00000000B    
4772 D1E7 04                db      00000100B    
4773 D1E8 00                db      00000000B    ;28
4774 D1E9 00                db      00000000B    
4775 D1EA 00                db      00000000B    
4776 D1EB 08                db      00001000B    
4777 D1EC 00                db      00000000B    ;29
4778 D1ED 00                db      00000000B    
4779 D1EE 00                db      00000000B    
4780 D1EF 10                db      00010000B    
4781 D1F0 00                db      00000000B    ;30
4782 D1F1 00                db      00000000B    
4783 D1F2 00                db      00000000B    
4784 D1F3 20                db      00100000B    
4785 D1F4 00                db      00000000B    ;31
4786 D1F5 00                db      00000000B    
4787 D1F6 00                db      00000000B    
4788 D1F7 40                db      01000000B    
4789 D1F8 00                db      00000000B    ;32
4790 D1F9 00                db      00000000B    
4791 D1FA 00                db      00000000B    
4792 D1FB 80                db      10000000B    
4793               
4794               ;;=====================================================================
4795               T_ADCValueTable:              
4796 D1FC FF07              dw      07FFH        ;1
4797 D1FE FF1F              dw      1FFFH        
4798               
4799               T_ADCKeyValueTable:           
4800 D200 00                db      00           
4801 D201 00                db      00           ;1
4802 D202 00                db      00           
4803               
4804               ;;=====================================================================
4805               T_ADC2ValueTable:             
4806 D203 0004              dw      0400H        ;1
4807 D205 FF1F              dw      1FFFH        
4808               
4809               T_ADC2KeyValueTable:          
4810 D207 00                db      00           
4811 D208 00                db      00           ;1
4812 D209 00                db      00           
4813 D20A 00                DB      00           
4814               
4815               ;;=====================================================================
4816               T_IOKeyValueTable:            
4817 D20B 00                db      00           
4818 D20C 00                db      00           ;1
4819 D20D 00                db      00           ;2
4820 D20E 00                db      00           ;3
4821 D20F 00                db      00           ;4
4822 D210 00                db      00           ;5
4823 D211 00                db      00           ;6
4824 D212 00                db      00           ;7
4825 D213 00                db      00           ;8
4826 D214 00                db      00           
4827               ;
4828               ;
4829               ;;
4830               ;;
4831                        include  tas5713.tab   
4832               ;;======================================================================================
4833               T_ChannelTable:               
4834 D215 00                db      00000000B    ;standby
4835 D216 00                db      00000000B    ;BT
4836 D217 00                db      00000000B    ;aux
4837 D218 00                db      00000000B    ;Optical
4838               
4839               ;;======================================================================================
4840               T_VolumeTable:                
4841 D219 FF                db      255          ;00
4842 D21A CA                db      180+22       ;01
4843 D21B A2                db      140+22       ;02
4844 D21C 84                db      110+22       ;03
4845 D21D 70                db      090+22       ;04
4846 D21E 66                db      080+22       ;05
4847 D21F 60                db      074+22       ;06
4848 D220 5A                db      068+22       ;07
4849 D221 54                db      062+22       ;08
4850 D222 4E                db      056+22       ;09
4851 D223 48                db      050+22       ;10
4852 D224 44                db      046+22       ;11
4853 D225 40                db      042+22       ;12
4854 D226 3C                db      038+22       ;13
4855 D227 38                db      034+22       ;14
4856 D228 34                db      030+22       ;15
4857 D229 32                db      028+22       ;16
4858 D22A 30                db      026+22       ;17
4859 D22B 2E                db      024+22       ;18
4860 D22C 2C                db      022+22       ;19
4861 D22D 2A                db      020+22       ;20
4862 D22E 28                db      018+22       ;21 
4863 D22F 26                db      016+22       ;22
4864 D230 24                db      014+22       ;23
4865 D231 22                db      012+22       ;24
4866 D232 21                db      011+22       ;25
4867 D233 20                db      010+22       ;26
4868 D234 1F                db      009+22       ;27 
4869 D235 1E                db      008+22       ;28
4870 D236 1D                db      007+22       ;29
4871 D237 1C                db      006+22       ;30
4872               
4873               ;;==========================================================================================
4874               T_InitialTAS5713StartTable:   
4875 D238 00                db      000h,000h    
     D239 00
4876 D23A 02                db      002h,010h    
     D23B 10
4877 D23C 00                db      000h,001h    
     D23D 01
4878 D23E 03                db      003h,004h    
     D23F 04
4879 D240 00                db      000h,000h    
     D241 00
4880 D242 03                db      003h,011h    
     D243 11
4881 D244 00                db      000h,02ch    ;
     D245 2C
4882 D246 08                db      008h,07fh    ;
     D247 7F
4883 D248 09                db      009h,0ffh    ;
     D249 FFFFFFFF
4884 D24A 0A                db      00ah,0ffh    ;
     D24B FFFFFFFF
4885 D24C 0B                db      00bh,000h    ;
     D24D 00
4886 D24E 0C                db      00ch,080h    ;
     D24F FFFFFF80
4887 D250 0D                db      00dh,000h    ;
     D251 00
4888 D252 0E                db      00eh,001h    ;
     D253 01
4889 D254 0F                db      00fh,000h    ;
     D255 00
4890 D256 10                db      010h,07fh    ;
     D257 7F
4891 D258 11                db      011h,0ffh    ;
     D259 FFFFFFFF
4892 D25A 12                db      012h,0ffh    ;
     D25B FFFFFFFF
4893 D25C 13                db      013h,000h    ;
     D25D 00
4894 D25E 14                db      014h,0ffh    ;
     D25F FFFFFFFF
4895 D260 15                db      015h,0ffh    ;
     D261 FFFFFFFF
4896 D262 16                db      016h,0ffh    ;
     D263 FFFFFFFF
4897 D264 17                db      017h,000h    ;
     D265 00
4898 D266 18                db      018h,080h    ;
     D267 FFFFFF80
4899 D268 19                db      019h,000h    ;
     D269 00
4900 D26A 1A                db      01ah,000h    ;
     D26B 00
4901 D26C 1B                db      01bh,000h    ;
     D26D 00
4902 D26E 1C                db      01ch,000h    ;
     D26F 00
4903 D270 1D                db      01dh,011h    ;
     D271 11
4904 D272 1E                db      01eh,010h    ;
     D273 10
4905 D274 1F                db      01fh,000h    ;
     D275 00
4906 D276 20                db      020h,07fh    ;
     D277 7F
4907 D278 21                db      021h,0eeh    ;
     D279 FFFFFFEE
4908 D27A 22                db      022h,0f0h    ;
     D27B FFFFFFF0
4909 D27C 23                db      023h,000h    ;
     D27D 00
4910 D27E 24                db      024h,000h    ;
     D27F 00
4911 D280 25                db      025h,0cch    ;
     D281 FFFFFFCC
4912 D282 26                db      026h,029h    ;
     D283 29
4913 D284 27                db      027h,000h    ;
     D285 00
4914 D286 28                db      028h,07fh    ;
     D287 7F
4915 D288 29                db      029h,033h    ;
     D289 33
4916 D28A 2A                db      02ah,0d7h    ;
     D28B FFFFFFD7
4917 D28C 2B                db      02bh,000h    ;
     D28D 00
4918 D28E 2C                db      02ch,000h    ;
     D28F 00
4919 D290 2D                db      02dh,01dh    ;
     D291 1D
4920 D292 2E                db      02eh,03eh    ;
     D293 3E
4921 D294 2F                db      02fh,000h    ;
     D295 00
4922 D296 30                db      030h,07fh    ;
     D297 7F
4923 D298 31                db      031h,0e2h    ;
     D299 FFFFFFE2
4924 D29A 32                db      032h,0c2h    ;
     D29B FFFFFFC2
4925 D29C 33                db      033h,000h    ;
     D29D 00
4926 D29E 34                db      034h,000h    ;
     D29F 00
4927 D2A0 35                db      035h,011h    ;
     D2A1 11
4928 D2A2 36                db      036h,010h    ;
     D2A3 10
4929 D2A4 37                db      037h,000h    ;
     D2A5 00
4930 D2A6 38                db      038h,07fh    ;
     D2A7 7F
4931 D2A8 39                db      039h,0eeh    ;
     D2A9 FFFFFFEE
4932 D2AA 3A                db      03ah,0f0h    ;
     D2AB FFFFFFF0
4933 D2AC 3B                db      03bh,000h    ;
     D2AD 00
4934 D2AE 3C                db      03ch,000h    ;
     D2AF 00
4935 D2B0 3D                db      03dh,066h    ;
     D2B1 66
4936 D2B2 3E                db      03eh,03dh    ;
     D2B3 3D
4937 D2B4 3F                db      03fh,000h    ;
     D2B5 00
4938 D2B6 40                db      040h,07fh    ;
     D2B7 7F
4939 D2B8 41                db      041h,099h    ;
     D2B9 FFFFFF99
4940 D2BA 42                db      042h,0c3h    ;
     D2BB FFFFFFC3
4941 D2BC 43                db      043h,000h    ;
     D2BD 00
4942 D2BE 44                db      044h,000h    ;
     D2BF 00
4943 D2C0 45                db      045h,022h    ;
     D2C1 22
4944 D2C2 46                db      046h,01eh    ;
     D2C3 1E
4945 D2C4 47                db      047h,000h    ;
     D2C5 00
4946 D2C6 48                db      048h,07fh    ;
     D2C7 7F
4947 D2C8 49                db      049h,0ddh    ;
     D2C9 FFFFFFDD
4948 D2CA 4A                db      04ah,0e2h    ;
     D2CB FFFFFFE2
4949 D2CC 4B                db      04bh,000h    ;
     D2CD 00
4950 D2CE 4C                db      04ch,000h    ;
     D2CF 00
4951 D2D0 4D                db      04dh,088h    ;
     D2D1 FFFFFF88
4952 D2D2 4E                db      04eh,040h    ;
     D2D3 40
4953 D2D4 4F                db      04fh,000h    ;
     D2D5 00
4954 D2D6 50                db      050h,07fh    ;
     D2D7 7F
4955 D2D8 51                db      051h,077h    ;
     D2D9 77
4956 D2DA 52                db      052h,0c0h    ;
     D2DB FFFFFFC0
4957 D2DC 53                db      053h,000h    ;
     D2DD 00
4958 D2DE 54                db      054h,003h    ;
     D2DF 03
4959 D2E0 55                db      055h,029h    ;
     D2E1 29
4960 D2E2 56                db      056h,00bh    ;
     D2E3 0B
4961 D2E4 57                db      057h,000h    ;
     D2E5 00
4962 D2E6 58                db      058h,07ch    ;
     D2E7 7C
4963 D2E8 59                db      059h,0d6h    ;
     D2E9 FFFFFFD6
4964 D2EA 5A                db      05ah,0f5h    ;
     D2EB FFFFFFF5
4965 D2EC 5B                db      05bh,000h    ;
     D2ED 00
4966 D2EE 5C                db      05ch,001h    ;
     D2EF 01
4967 D2F0 5D                db      05dh,00fh    ;
     D2F1 0F
4968 D2F2 5E                db      05eh,0efh    ;
     D2F3 FFFFFFEF
4969 D2F4 5F                db      05fh,000h    ;
     D2F5 00
4970 D2F6 60                db      060h,07eh    ;
     D2F7 7E
4971 D2F8 61                db      061h,0f0h    ;
     D2F9 FFFFFFF0
4972 D2FA 62                db      062h,011h    ;
     D2FB 11
4973 D2FC 63                db      063h,000h    ;
     D2FD 00
4974 D2FE 64                db      064h,000h    ;
     D2FF 00
4975 D300 65                db      065h,000h    ;
     D301 00
4976 D302 66                db      066h,000h    ;
     D303 00
4977 D304 67                db      067h,000h    ;
     D305 00
4978 D306 68                db      068h,000h    ;
     D307 00
4979 D308 69                db      069h,000h    ;
     D309 00
4980 D30A 6A                db      06ah,000h    ;
     D30B 00
4981 D30C 6B                db      06bh,000h    ;
     D30D 00
4982 D30E 6C                db      06ch,000h    ;
     D30F 00
4983 D310 6D                db      06dh,000h    ;
     D311 00
4984 D312 6E                db      06eh,000h    ;
     D313 00
4985 D314 6F                db      06fh,000h    ;
     D315 00
4986 D316 70                db      070h,050h    ;
     D317 50
4987 D318 71                db      071h,000h    ;
     D319 00
4988 D31A 72                db      072h,000h    ;
     D31B 00
4989 D31C 73                db      073h,000h    ;
     D31D 00
4990 D31E 74                db      074h,00dh    ;
     D31F 0D
4991 D320 75                db      075h,000h    ;
     D321 00
4992 D322 76                db      076h,000h    ;
     D323 00
4993 D324 77                db      077h,000h    ;
     D325 00
4994 D326 78                db      078h,000h    ;
     D327 00
4995 D328 79                db      079h,000h    ;
     D329 00
4996 D32A 7A                db      07ah,000h    ;
     D32B 00
4997 D32C 7B                db      07bh,000h    ;
     D32D 00
4998 D32E 7C                db      07ch,000h    ;
     D32F 00
4999 D330 7D                db      07dh,000h    ;
     D331 00
5000 D332 7E                db      07eh,000h    ;
     D333 00
5001 D334 7F                db      07fh,000h    ;
     D335 00
5002 D336 00                db      000h,02dh    ;
     D337 2D
5003 D338 08                db      008h,0c0h    ;
     D339 FFFFFFC0
5004 D33A 09                db      009h,000h    ;
     D33B 00
5005 D33C 0A                db      00ah,000h    ;
     D33D 00
5006 D33E 0B                db      00bh,000h    ;
     D33F 00
5007 D340 0C                db      00ch,080h    ;
     D341 FFFFFF80
5008 D342 0D                db      00dh,000h    ;
     D343 00
5009 D344 0E                db      00eh,000h    ;
     D345 00
5010 D346 0F                db      00fh,000h    ;
     D347 00
5011 D348 10                db      010h,040h    ;
     D349 40
5012 D34A 11                db      011h,000h    ;
     D34B 00
5013 D34C 12                db      012h,000h    ;
     D34D 00
5014 D34E 13                db      013h,000h    ;
     D34F 00
5015 D350 14                db      014h,000h    ;
     D351 00
5016 D352 15                db      015h,000h    ;
     D353 00
5017 D354 16                db      016h,000h    ;
     D355 00
5018 D356 17                db      017h,000h    ;
     D357 00
5019 D358 18                db      018h,0a2h    ;
     D359 FFFFFFA2
5020 D35A 19                db      019h,0c0h    ;
     D35B FFFFFFC0
5021 D35C 1A                db      01ah,000h    ;
     D35D 00
5022 D35E 1B                db      01bh,000h    ;
     D35F 00
5023 D360 1C                db      01ch,0d7h    ;
     D361 FFFFFFD7
5024 D362 1D                db      01dh,041h    ;
     D363 41
5025 D364 1E                db      01eh,0a0h    ;
     D365 FFFFFFA0
5026 D366 1F                db      01fh,000h    ;
     D367 00
5027 D368 20                db      020h,0ffh    ;
     D369 FFFFFFFF
5028 D36A 21                db      021h,0f0h    ;
     D36B FFFFFFF0
5029 D36C 22                db      022h,000h    ;
     D36D 00
5030 D36E 23                db      023h,000h    ;
     D36F 00
5031 D370 24                db      024h,088h    ;
     D371 FFFFFF88
5032 D372 25                db      025h,000h    ;
     D373 00
5033 D374 26                db      026h,000h    ;
     D375 00
5034 D376 27                db      027h,000h    ;
     D377 00
5035 D378 28                db      028h,018h    ;
     D379 18
5036 D37A 29                db      029h,000h    ;
     D37B 00
5037 D37C 2A                db      02ah,000h    ;
     D37D 00
5038 D37E 2B                db      02bh,000h    ;
     D37F 00
5039 D380 2C                db      02ch,000h    ;
     D381 00
5040 D382 2D                db      02dh,000h    ;
     D383 00
5041 D384 2E                db      02eh,000h    ;
     D385 00
5042 D386 2F                db      02fh,000h    ;
     D387 00
5043 D388 30                db      030h,000h    ;
     D389 00
5044 D38A 31                db      031h,000h    ;
     D38B 00
5045 D38C 32                db      032h,000h    ;
     D38D 00
5046 D38E 33                db      033h,000h    ;
     D38F 00
5047 D390 34                db      034h,000h    ;
     D391 00
5048 D392 35                db      035h,000h    ;
     D393 00
5049 D394 36                db      036h,000h    ;
     D395 00
5050 D396 37                db      037h,000h    ;
     D397 00
5051 D398 38                db      038h,030h    ;
     D399 30
5052 D39A 39                db      039h,000h    ;
     D39B 00
5053 D39C 3A                db      03ah,000h    ;
     D39D 00
5054 D39E 3B                db      03bh,000h    ;
     D39F 00
5055 D3A0 3C                db      03ch,0d0h    ;
     D3A1 FFFFFFD0
5056 D3A2 3D                db      03dh,000h    ;
     D3A3 00
5057 D3A4 3E                db      03eh,000h    ;
     D3A5 00
5058 D3A6 3F                db      03fh,000h    ;
     D3A7 00
5059 D3A8 40                db      040h,000h    ;
     D3A9 00
5060 D3AA 41                db      041h,003h    ;
     D3AB 03
5061 D3AC 42                db      042h,084h    ;
     D3AD FFFFFF84
5062 D3AE 43                db      043h,000h    ;
     D3AF 00
5063 D3B0 44                db      044h,000h    ;
     D3B1 00
5064 D3B2 45                db      045h,0b2h    ;
     D3B3 FFFFFFB2
5065 D3B4 46                db      046h,055h    ;
     D3B5 55
5066 D3B6 47                db      047h,000h    ;
     D3B7 00
5067 D3B8 48                db      048h,00eh    ;
     D3B9 0E
5068 D3BA 49                db      049h,05bh    ;
     D3BB 5B
5069 D3BC 4A                db      04ah,0deh    ;
     D3BD FFFFFFDE
5070 D3BE 4B                db      04bh,000h    ;
     D3BF 00
5071 D3C0 4C                db      04ch,07fh    ;
     D3C1 7F
5072 D3C2 4D                db      04dh,0ffh    ;
     D3C3 FFFFFFFF
5073 D3C4 4E                db      04eh,0ffh    ;
     D3C5 FFFFFFFF
5074 D3C6 4F                db      04fh,000h    ;
     D3C7 00
5075 D3C8 50                db      050h,000h    ;
     D3C9 00
5076 D3CA 51                db      051h,000h    ;
     D3CB 00
5077 D3CC 52                db      052h,000h    ;
     D3CD 00
5078 D3CE 53                db      053h,000h    ;
     D3CF 00
5079 D3D0 54                db      054h,002h    ;
     D3D1 02
5080 D3D2 55                db      055h,000h    ;
     D3D3 00
5081 D3D4 56                db      056h,000h    ;
     D3D5 00
5082 D3D6 57                db      057h,000h    ;
     D3D7 00
5083 D3D8 58                db      058h,020h    ;
     D3D9 20
5084 D3DA 59                db      059h,000h    ;
     D3DB 00
5085 D3DC 5A                db      05ah,000h    ;
     D3DD 00
5086 D3DE 5B                db      05bh,000h    ;
     D3DF 00
5087 D3E0 5C                db      05ch,000h    ;
     D3E1 00
5088 D3E2 5D                db      05dh,051h    ;
     D3E3 51
5089 D3E4 5E                db      05eh,026h    ;
     D3E5 26
5090 D3E6 5F                db      05fh,000h    ;
     D3E7 00
5091 D3E8 60                db      060h,040h    ;
     D3E9 40
5092 D3EA 61                db      061h,000h    ;
     D3EB 00
5093 D3EC 62                db      062h,000h    ;
     D3ED 00
5094 D3EE 63                db      063h,000h    ;
     D3EF 00
5095 D3F0 64                db      064h,000h    ;
     D3F1 00
5096 D3F2 65                db      065h,00ch    ;
     D3F3 0C
5097 D3F4 66                db      066h,0dch    ;
     D3F5 FFFFFFDC
5098 D3F6 67                db      067h,000h    ;
     D3F7 00
5099 D3F8 68                db      068h,002h    ;
     D3F9 02
5100 D3FA 69                db      069h,000h    ;
     D3FB 00
5101 D3FC 6A                db      06ah,000h    ;
     D3FD 00
5102 D3FE 6B                db      06bh,000h    ;
     D3FF 00
5103 D400 6C                db      06ch,002h    ;
     D401 02
5104 D402 6D                db      06dh,000h    ;
     D403 00
5105 D404 6E                db      06eh,000h    ;
     D405 00
5106 D406 6F                db      06fh,000h    ;
     D407 00
5107 D408 70                db      070h,000h    ;
     D409 00
5108 D40A 71                db      071h,000h    ;
     D40B 00
5109 D40C 72                db      072h,000h    ;
     D40D 00
5110 D40E 73                db      073h,000h    ;
     D40F 00
5111 D410 74                db      074h,000h    ;
     D411 00
5112 D412 75                db      075h,016h    ;
     D413 16
5113 D414 76                db      076h,05ah    ;
     D415 5A
5114 D416 77                db      077h,000h    ;
     D417 00
5115 D418 78                db      078h,000h    ;
     D419 00
5116 D41A 79                db      079h,037h    ;
     D41B 37
5117 D41C 7A                db      07ah,056h    ;
     D41D 56
5118 D41E 7B                db      07bh,000h    ;
     D41F 00
5119 D420 7C                db      07ch,010h    ;
     D421 10
5120 D422 7D                db      07dh,0a9h    ;
     D423 FFFFFFA9
5121 D424 7E                db      07eh,0bfh    ;
     D425 FFFFFFBF
5122 D426 7F                db      07fh,000h    ;
     D427 00
5123 D428 00                db      000h,02eh    ;
     D429 2E
5124 D42A 08                db      008h,07fh    ;
     D42B 7F
5125 D42C 09                db      009h,0ffh    ;
     D42D FFFFFFFF
5126 D42E 0A                db      00ah,0ffh    ;
     D42F FFFFFFFF
5127 D430 0B                db      00bh,000h    ;
     D431 00
5128 D432 0C                db      00ch,000h    ;
     D433 00
5129 D434 0D                db      00dh,000h    ;
     D435 00
5130 D436 0E                db      00eh,000h    ;
     D437 00
5131 D438 0F                db      00fh,000h    ;
     D439 00
5132 D43A 10                db      010h,002h    ;
     D43B 02
5133 D43C 11                db      011h,000h    ;
     D43D 00
5134 D43E 12                db      012h,000h    ;
     D43F 00
5135 D440 13                db      013h,000h    ;
     D441 00
5136 D442 14                db      014h,0e0h    ;
     D443 FFFFFFE0
5137 D444 15                db      015h,000h    ;
     D445 00
5138 D446 16                db      016h,000h    ;
     D447 00
5139 D448 17                db      017h,000h    ;
     D449 00
5140 D44A 18                db      018h,00ch    ;
     D44B 0C
5141 D44C 19                db      019h,09eh    ;
     D44D FFFFFF9E
5142 D44E 1A                db      01ah,080h    ;
     D44F FFFFFF80
5143 D450 1B                db      01bh,000h    ;
     D451 00
5144 D452 1C                db      01ch,0c0h    ;
     D453 FFFFFFC0
5145 D454 1D                db      01dh,000h    ;
     D455 00
5146 D456 1E                db      01eh,000h    ;
     D457 00
5147 D458 1F                db      01fh,000h    ;
     D459 00
5148 D45A 20                db      020h,04fh    ;
     D45B 4F
5149 D45C 21                db      021h,09fh    ;
     D45D FFFFFF9F
5150 D45E 22                db      022h,016h    ;
     D45F 16
5151 D460 23                db      023h,000h    ;
     D461 00
5152 D462 24                db      024h,002h    ;
     D463 02
5153 D464 25                db      025h,000h    ;
     D465 00
5154 D466 26                db      026h,000h    ;
     D467 00
5155 D468 27                db      027h,000h    ;
     D469 00
5156 D46A 28                db      028h,000h    ;
     D46B 00
5157 D46C 29                db      029h,000h    ;
     D46D 00
5158 D46E 2A                db      02ah,000h    ;
     D46F 00
5159 D470 2B                db      02bh,000h    ;
     D471 00
5160 D472 2C                db      02ch,000h    ;
     D473 00
5161 D474 2D                db      02dh,000h    ;
     D475 00
5162 D476 2E                db      02eh,000h    ;
     D477 00
5163 D478 2F                db      02fh,000h    ;
     D479 00
5164 D47A 30                db      030h,020h    ;
     D47B 20
5165 D47C 31                db      031h,000h    ;
     D47D 00
5166 D47E 32                db      032h,000h    ;
     D47F 00
5167 D480 33                db      033h,000h    ;
     D481 00
5168 D482 34                db      034h,040h    ;
     D483 40
5169 D484 35                db      035h,000h    ;
     D485 00
5170 D486 36                db      036h,000h    ;
     D487 00
5171 D488 37                db      037h,000h    ;
     D489 00
5172 D48A 38                db      038h,0e0h    ;
     D48B FFFFFFE0
5173 D48C 39                db      039h,000h    ;
     D48D 00
5174 D48E 3A                db      03ah,000h    ;
     D48F 00
5175 D490 3B                db      03bh,000h    ;
     D491 00
5176 D492 3C                db      03ch,0c0h    ;
     D493 FFFFFFC0
5177 D494 3D                db      03dh,000h    ;
     D495 00
5178 D496 3E                db      03eh,000h    ;
     D497 00
5179 D498 3F                db      03fh,000h    ;
     D499 00
5180 D49A 40                db      040h,000h    ;
     D49B 00
5181 D49C 41                db      041h,080h    ;
     D49D FFFFFF80
5182 D49E 42                db      042h,000h    ;
     D49F 00
5183 D4A0 43                db      043h,000h    ;
     D4A1 00
5184 D4A2 44                db      044h,000h    ;
     D4A3 00
5185 D4A4 45                db      045h,080h    ;
     D4A5 FFFFFF80
5186 D4A6 46                db      046h,000h    ;
     D4A7 00
5187 D4A8 47                db      047h,000h    ;
     D4A9 00
5188 D4AA 48                db      048h,000h    ;
     D4AB 00
5189 D4AC 49                db      049h,080h    ;
     D4AD FFFFFF80
5190 D4AE 4A                db      04ah,000h    ;
     D4AF 00
5191 D4B0 4B                db      04bh,000h    ;
     D4B1 00
5192 D4B2 4C                db      04ch,080h    ;
     D4B3 FFFFFF80
5193 D4B4 4D                db      04dh,000h    ;
     D4B5 00
5194 D4B6 4E                db      04eh,000h    ;
     D4B7 00
5195 D4B8 4F                db      04fh,000h    ;
     D4B9 00
5196 D4BA 50                db      050h,07fh    ;
     D4BB 7F
5197 D4BC 51                db      051h,0ffh    ;
     D4BD FFFFFFFF
5198 D4BE 52                db      052h,0ffh    ;
     D4BF FFFFFFFF
5199 D4C0 53                db      053h,000h    ;
     D4C1 00
5200 D4C2 54                db      054h,000h    ;
     D4C3 00
5201 D4C4 55                db      055h,080h    ;
     D4C5 FFFFFF80
5202 D4C6 56                db      056h,000h    ;
     D4C7 00
5203 D4C8 57                db      057h,000h    ;
     D4C9 00
5204 D4CA 58                db      058h,000h    ;
     D4CB 00
5205 D4CC 59                db      059h,080h    ;
     D4CD FFFFFF80
5206 D4CE 5A                db      05ah,000h    ;
     D4CF 00
5207 D4D0 5B                db      05bh,000h    ;
     D4D1 00
5208 D4D2 5C                db      05ch,000h    ;
     D4D3 00
5209 D4D4 5D                db      05dh,080h    ;
     D4D5 FFFFFF80
5210 D4D6 5E                db      05eh,000h    ;
     D4D7 00
5211 D4D8 5F                db      05fh,000h    ;
     D4D9 00
5212 D4DA 60                db      060h,0c0h    ;
     D4DB FFFFFFC0
5213 D4DC 61                db      061h,000h    ;
     D4DD 00
5214 D4DE 62                db      062h,000h    ;
     D4DF 00
5215 D4E0 63                db      063h,000h    ;
     D4E1 00
5216 D4E2 64                db      064h,07fh    ;
     D4E3 7F
5217 D4E4 65                db      065h,0aah    ;
     D4E5 FFFFFFAA
5218 D4E6 66                db      066h,06fh    ;
     D4E7 6F
5219 D4E8 67                db      067h,000h    ;
     D4E9 00
5220 D4EA 68                db      068h,0c0h    ;
     D4EB FFFFFFC0
5221 D4EC 69                db      069h,02ah    ;
     D4ED 2A
5222 D4EE 6A                db      06ah,0c9h    ;
     D4EF FFFFFFC9
5223 D4F0 6B                db      06bh,000h    ;
     D4F1 00
5224 D4F2 6C                db      06ch,000h    ;
     D4F3 00
5225 D4F4 6D                db      06dh,000h    ;
     D4F5 00
5226 D4F6 6E                db      06eh,000h    ;
     D4F7 00
5227 D4F8 6F                db      06fh,000h    ;
     D4F9 00
5228 D4FA 70                db      070h,03fh    ;
     D4FB 3F
5229 D4FC 71                db      071h,0aah    ;
     D4FD FFFFFFAA
5230 D4FE 72                db      072h,06fh    ;
     D4FF 6F
5231 D500 73                db      073h,000h    ;
     D501 00
5232 D502 74                db      074h,000h    ;
     D503 00
5233 D504 75                db      075h,000h    ;
     D505 00
5234 D506 76                db      076h,000h    ;
     D507 00
5235 D508 77                db      077h,000h    ;
     D509 00
5236 D50A 78                db      078h,07fh    ;
     D50B 7F
5237 D50C 79                db      079h,0ffh    ;
     D50D FFFFFFFF
5238 D50E 7A                db      07ah,0ffh    ;
     D50F FFFFFFFF
5239 D510 7B                db      07bh,000h    ;
     D511 00
5240 D512 7C                db      07ch,081h    ;
     D513 FFFFFF81
5241 D514 7D                db      07dh,02dh    ;
     D515 2D
5242 D516 7E                db      07eh,02dh    ;
     D517 2D
5243 D518 7F                db      07fh,000h    ;
     D519 00
5244 D51A 00                db      000h,02fh    ;
     D51B 2F
5245 D51C 08                db      008h,07dh    ;
     D51D 7D
5246 D51E 09                db      009h,0a7h    ;
     D51F FFFFFFA7
5247 D520 0A                db      00ah,0a8h    ;
     D521 FFFFFFA8
5248 D522 0B                db      00bh,000h    ;
     D523 00
5249 D524 0C                db      00ch,07fh    ;
     D525 7F
5250 D526 0D                db      00dh,029h    ;
     D527 29
5251 D528 0E                db      00eh,0ebh    ;
     D529 FFFFFFEB
5252 D52A 0F                db      00fh,000h    ;
     D52B 00
5253 D52C 10                db      010h,081h    ;
     D52D FFFFFF81
5254 D52E 11                db      011h,0aah    ;
     D52F FFFFFFAA
5255 D530 12                db      012h,027h    ;
     D531 27
5256 D532 13                db      013h,000h    ;
     D533 00
5257 D534 14                db      014h,07fh    ;
     D535 7F
5258 D536 15                db      015h,0ffh    ;
     D537 FFFFFFFF
5259 D538 16                db      016h,0ffh    ;
     D539 FFFFFFFF
5260 D53A 17                db      017h,000h    ;
     D53B 00
5261 D53C 18                db      018h,080h    ;
     D53D FFFFFF80
5262 D53E 19                db      019h,0d8h    ;
     D53F FFFFFFD8
5263 D540 1A                db      01ah,074h    ;
     D541 74
5264 D542 1B                db      01bh,000h    ;
     D543 00
5265 D544 1C                db      01ch,07eh    ;
     D545 7E
5266 D546 1D                db      01dh,055h    ;
     D547 55
5267 D548 1E                db      01eh,0d9h    ;
     D549 FFFFFFD9
5268 D54A 1F                db      01fh,000h    ;
     D54B 00
5269 D54C 20                db      020h,07fh    ;
     D54D 7F
5270 D54E 21                db      021h,027h    ;
     D54F 27
5271 D550 22                db      022h,08ch    ;
     D551 FFFFFF8C
5272 D552 23                db      023h,000h    ;
     D553 00
5273 D554 24                db      024h,081h    ;
     D555 FFFFFF81
5274 D556 25                db      025h,0aah    ;
     D557 FFFFFFAA
5275 D558 26                db      026h,027h    ;
     D559 27
5276 D55A 27                db      027h,000h    ;
     D55B 00
5277 D55C 28                db      028h,07fh    ;
     D55D 7F
5278 D55E 29                db      029h,0ffh    ;
     D55F FFFFFFFF
5279 D560 2A                db      02ah,0ffh    ;
     D561 FFFFFFFF
5280 D562 2B                db      02bh,000h    ;
     D563 00
5281 D564 2C                db      02ch,09fh    ;
     D565 FFFFFF9F
5282 D566 2D                db      02dh,07bh    ;
     D567 7B
5283 D568 2E                db      02eh,00dh    ;
     D569 0D
5284 D56A 2F                db      02fh,000h    ;
     D56B 00
5285 D56C 30                db      030h,047h    ;
     D56D 47
5286 D56E 31                db      031h,0d9h    ;
     D56F FFFFFFD9
5287 D570 32                db      032h,02eh    ;
     D571 2E
5288 D572 33                db      033h,000h    ;
     D573 00
5289 D574 34                db      034h,067h    ;
     D575 67
5290 D576 35                db      035h,020h    ;
     D577 20
5291 D578 36                db      036h,024h    ;
     D579 24
5292 D57A 37                db      037h,000h    ;
     D57B 00
5293 D57C 38                db      038h,0aah    ;
     D57D FFFFFFAA
5294 D57E 39                db      039h,079h    ;
     D57F 79
5295 D580 3A                db      03ah,020h    ;
     D581 20
5296 D582 3B                db      03bh,000h    ;
     D583 00
5297 D584 3C                db      03ch,078h    ;
     D585 78
5298 D586 3D                db      03dh,0c8h    ;
     D587 FFFFFFC8
5299 D588 3E                db      03eh,09eh    ;
     D589 FFFFFF9E
5300 D58A 3F                db      03fh,000h    ;
     D58B 00
5301 D58C 40                db      040h,0a2h    ;
     D58D FFFFFFA2
5302 D58E 41                db      041h,0b8h    ;
     D58F FFFFFFB8
5303 D590 42                db      042h,057h    ;
     D591 57
5304 D592 43                db      043h,000h    ;
     D593 00
5305 D594 44                db      044h,05ch    ;
     D595 5C
5306 D596 45                db      045h,0aeh    ;
     D597 FFFFFFAE
5307 D598 46                db      046h,039h    ;
     D599 39
5308 D59A 47                db      047h,000h    ;
     D59B 00
5309 D59C 48                db      048h,05dh    ;
     D59D 5D
5310 D59E 49                db      049h,047h    ;
     D59F 47
5311 D5A0 4A                db      04ah,0a9h    ;
     D5A1 FFFFFFA9
5312 D5A2 4B                db      04bh,000h    ;
     D5A3 00
5313 D5A4 4C                db      04ch,0aah    ;
     D5A5 FFFFFFAA
5314 D5A6 4D                db      04dh,089h    ;
     D5A7 FFFFFF89
5315 D5A8 4E                db      04eh,028h    ;
     D5A9 28
5316 D5AA 4F                db      04fh,000h    ;
     D5AB 00
5317 D5AC 50                db      050h,07fh    ;
     D5AD 7F
5318 D5AE 51                db      051h,0ffh    ;
     D5AF FFFFFFFF
5319 D5B0 52                db      052h,0ffh    ;
     D5B1 FFFFFFFF
5320 D5B2 53                db      053h,000h    ;
     D5B3 00
5321 D5B4 54                db      054h,085h    ;
     D5B5 FFFFFF85
5322 D5B6 55                db      055h,0ebh    ;
     D5B7 FFFFFFEB
5323 D5B8 56                db      056h,057h    ;
     D5B9 57
5324 D5BA 57                db      057h,000h    ;
     D5BB 00
5325 D5BC 58                db      058h,074h    ;
     D5BD 74
5326 D5BE 59                db      059h,0afh    ;
     D5BF FFFFFFAF
5327 D5C0 5A                db      05ah,071h    ;
     D5C1 71
5328 D5C2 5B                db      05bh,000h    ;
     D5C3 00
5329 D5C4 5C                db      05ch,07bh    ;
     D5C5 7B
5330 D5C6 5D                db      05dh,0adh    ;
     D5C7 FFFFFFAD
5331 D5C8 5E                db      05eh,05ah    ;
     D5C9 5A
5332 D5CA 5F                db      05fh,000h    ;
     D5CB 00
5333 D5CC 60                db      060h,088h    ;
     D5CD FFFFFF88
5334 D5CE 61                db      061h,01dh    ;
     D5CF 1D
5335 D5D0 62                db      062h,06ch    ;
     D5D1 6C
5336 D5D2 63                db      063h,000h    ;
     D5D3 00
5337 D5D4 64                db      064h,07dh    ;
     D5D5 7D
5338 D5D6 65                db      065h,0b8h    ;
     D5D7 FFFFFFB8
5339 D5D8 66                db      066h,07dh    ;
     D5D9 7D
5340 D5DA 67                db      067h,000h    ;
     D5DB 00
5341 D5DC 68                db      068h,082h    ;
     D5DD FFFFFF82
5342 D5DE 69                db      069h,0b4h    ;
     D5DF FFFFFFB4
5343 D5E0 6A                db      06ah,04ch    ;
     D5E1 4C
5344 D5E2 6B                db      06bh,000h    ;
     D5E3 00
5345 D5E4 6C                db      06ch,07dh    ;
     D5E5 7D
5346 D5E6 6D                db      06dh,010h    ;
     D5E7 10
5347 D5E8 6E                db      06eh,069h    ;
     D5E9 69
5348 D5EA 6F                db      06fh,000h    ;
     D5EB 00
5349 D5EC 70                db      070h,07dh    ;
     D5ED 7D
5350 D5EE 71                db      071h,04bh    ;
     D5EF 4B
5351 D5F0 72                db      072h,0b4h    ;
     D5F1 FFFFFFB4
5352 D5F2 73                db      073h,000h    ;
     D5F3 00
5353 D5F4 74                db      074h,085h    ;
     D5F5 FFFFFF85
5354 D5F6 75                db      075h,037h    ;
     D5F7 37
5355 D5F8 76                db      076h,018h    ;
     D5F9 18
5356 D5FA 77                db      077h,000h    ;
     D5FB 00
5357 D5FC 78                db      078h,05ah    ;
     D5FD 5A
5358 D5FE 79                db      079h,082h    ;
     D5FF FFFFFF82
5359 D600 7A                db      07ah,079h    ;
     D601 79
5360 D602 7B                db      07bh,000h    ;
     D603 00
5361 D604 7C                db      07ch,02dh    ;
     D605 2D
5362 D606 7D                db      07dh,041h    ;
     D607 41
5363 D608 7E                db      07eh,03ch    ;
     D609 3C
5364 D60A 7F                db      07fh,000h    ;
     D60B 00
5365 D60C 00                db      000h,030h    ;
     D60D 30
5366 D60E 08                db      008h,000h    ;
     D60F 00
5367 D610 09                db      009h,000h    ;
     D611 00
5368 D612 0A                db      00ah,000h    ;
     D613 00
5369 D614 0B                db      00bh,000h    ;
     D615 00
5370 D616 0C                db      00ch,0e5h    ;
     D617 FFFFFFE5
5371 D618 0D                db      00dh,07dh    ;
     D619 7D
5372 D61A 0E                db      00eh,087h    ;
     D61B FFFFFF87
5373 D61C 0F                db      00fh,000h    ;
     D61D 00
5374 D61E 10                db      010h,000h    ;
     D61F 00
5375 D620 11                db      011h,000h    ;
     D621 00
5376 D622 12                db      012h,000h    ;
     D623 00
5377 D624 13                db      013h,000h    ;
     D625 00
5378 D626 14                db      014h,07fh    ;
     D627 7F
5379 D628 15                db      015h,0ffh    ;
     D629 FFFFFFFF
5380 D62A 16                db      016h,0ffh    ;
     D62B FFFFFFFF
5381 D62C 17                db      017h,000h    ;
     D62D 00
5382 D62E 18                db      018h,081h    ;
     D62F FFFFFF81
5383 D630 19                db      019h,0a2h    ;
     D631 FFFFFFA2
5384 D632 1A                db      01ah,091h    ;
     D633 FFFFFF91
5385 D634 1B                db      01bh,000h    ;
     D635 00
5386 D636 1C                db      01ch,07ch    ;
     D637 7C
5387 D638 1D                db      01dh,0bch    ;
     D639 FFFFFFBC
5388 D63A 1E                db      01eh,08dh    ;
     D63B FFFFFF8D
5389 D63C 1F                db      01fh,000h    ;
     D63D 00
5390 D63E 20                db      020h,07fh    ;
     D63F 7F
5391 D640 21                db      021h,069h    ;
     D641 69
5392 D642 22                db      022h,0b5h    ;
     D643 FFFFFFB5
5393 D644 23                db      023h,000h    ;
     D645 00
5394 D646 24                db      024h,081h    ;
     D647 FFFFFF81
5395 D648 25                db      025h,02ah    ;
     D649 2A
5396 D64A 26                db      026h,0e4h    ;
     D64B FFFFFFE4
5397 D64C 27                db      027h,000h    ;
     D64D 00
5398 D64E 28                db      028h,077h    ;
     D64F 77
5399 D650 29                db      029h,0cch    ;
     D651 FFFFFFCC
5400 D652 2A                db      02ah,0e2h    ;
     D653 FFFFFFE2
5401 D654 2B                db      02bh,000h    ;
     D655 00
5402 D656 2C                db      02ch,0c3h    ;
     D657 FFFFFFC3
5403 D658 2D                db      02dh,02bh    ;
     D659 2B
5404 D65A 2E                db      02eh,086h    ;
     D65B FFFFFF86
5405 D65C 2F                db      02fh,000h    ;
     D65D 00
5406 D65E 30                db      030h,050h    ;
     D65F 50
5407 D660 31                db      031h,00ch    ;
     D661 0C
5408 D662 32                db      032h,04bh    ;
     D663 4B
5409 D664 33                db      033h,000h    ;
     D665 00
5410 D666 34                db      034h,03ch    ;
     D667 3C
5411 D668 35                db      035h,0d4h    ;
     D669 FFFFFFD4
5412 D66A 36                db      036h,07ah    ;
     D66B 7A
5413 D66C 37                db      037h,000h    ;
     D66D 00
5414 D66E 38                db      038h,0b8h    ;
     D66F FFFFFFB8
5415 D670 39                db      039h,026h    ;
     D671 26
5416 D672 3A                db      03ah,0d2h    ;
     D673 FFFFFFD2
5417 D674 3B                db      03bh,000h    ;
     D675 00
5418 D676 3C                db      03ch,07fh    ;
     D677 7F
5419 D678 3D                db      03dh,0ffh    ;
     D679 FFFFFFFF
5420 D67A 3E                db      03eh,0ffh    ;
     D67B FFFFFFFF
5421 D67C 3F                db      03fh,000h    ;
     D67D 00
5422 D67E 40                db      040h,000h    ;
     D67F 00
5423 D680 41                db      041h,000h    ;
     D681 00
5424 D682 42                db      042h,000h    ;
     D683 00
5425 D684 43                db      043h,000h    ;
     D685 00
5426 D686 44                db      044h,000h    ;
     D687 00
5427 D688 45                db      045h,000h    ;
     D689 00
5428 D68A 46                db      046h,000h    ;
     D68B 00
5429 D68C 47                db      047h,000h    ;
     D68D 00
5430 D68E 48                db      048h,000h    ;
     D68F 00
5431 D690 49                db      049h,000h    ;
     D691 00
5432 D692 4A                db      04ah,000h    ;
     D693 00
5433 D694 4B                db      04bh,000h    ;
     D695 00
5434 D696 4C                db      04ch,000h    ;
     D697 00
5435 D698 4D                db      04dh,000h    ;
     D699 00
5436 D69A 4E                db      04eh,000h    ;
     D69B 00
5437 D69C 4F                db      04fh,000h    ;
     D69D 00
5438 D69E 50                db      050h,07fh    ;
     D69F 7F
5439 D6A0 51                db      051h,0ffh    ;
     D6A1 FFFFFFFF
5440 D6A2 52                db      052h,0ffh    ;
     D6A3 FFFFFFFF
5441 D6A4 53                db      053h,000h    ;
     D6A5 00
5442 D6A6 54                db      054h,000h    ;
     D6A7 00
5443 D6A8 55                db      055h,000h    ;
     D6A9 00
5444 D6AA 56                db      056h,000h    ;
     D6AB 00
5445 D6AC 57                db      057h,000h    ;
     D6AD 00
5446 D6AE 58                db      058h,000h    ;
     D6AF 00
5447 D6B0 59                db      059h,000h    ;
     D6B1 00
5448 D6B2 5A                db      05ah,000h    ;
     D6B3 00
5449 D6B4 5B                db      05bh,000h    ;
     D6B5 00
5450 D6B6 5C                db      05ch,000h    ;
     D6B7 00
5451 D6B8 5D                db      05dh,000h    ;
     D6B9 00
5452 D6BA 5E                db      05eh,000h    ;
     D6BB 00
5453 D6BC 5F                db      05fh,000h    ;
     D6BD 00
5454 D6BE 60                db      060h,000h    ;
     D6BF 00
5455 D6C0 61                db      061h,000h    ;
     D6C1 00
5456 D6C2 62                db      062h,000h    ;
     D6C3 00
5457 D6C4 63                db      063h,000h    ;
     D6C5 00
5458 D6C6 64                db      064h,0fdh    ;
     D6C7 FFFFFFFD
5459 D6C8 65                db      065h,0b9h    ;
     D6C9 FFFFFFB9
5460 D6CA 66                db      066h,04bh    ;
     D6CB 4B
5461 D6CC 67                db      067h,000h    ;
     D6CD 00
5462 D6CE 68                db      068h,016h    ;
     D6CF 16
5463 D6D0 69                db      069h,002h    ;
     D6D1 02
5464 D6D2 6A                db      06ah,051h    ;
     D6D3 51
5465 D6D4 6B                db      06bh,000h    ;
     D6D5 00
5466 D6D6 6C                db      06ch,000h    ;
     D6D7 00
5467 D6D8 6D                db      06dh,008h    ;
     D6D9 08
5468 D6DA 6E                db      06eh,0c0h    ;
     D6DB FFFFFFC0
5469 D6DC 6F                db      06fh,000h    ;
     D6DD 00
5470 D6DE 70                db      070h,001h    ;
     D6DF 01
5471 D6E0 71                db      071h,053h    ;
     D6E1 53
5472 D6E2 72                db      072h,09ah    ;
     D6E3 FFFFFF9A
5473 D6E4 73                db      073h,000h    ;
     D6E5 00
5474 D6E6 74                db      074h,000h    ;
     D6E7 00
5475 D6E8 75                db      075h,000h    ;
     D6E9 00
5476 D6EA 76                db      076h,000h    ;
     D6EB 00
5477 D6EC 77                db      077h,000h    ;
     D6ED 00
5478 D6EE 78                db      078h,0feh    ;
     D6EF FFFFFFFE
5479 D6F0 79                db      079h,0ach    ;
     D6F1 FFFFFFAC
5480 D6F2 7A                db      07ah,066h    ;
     D6F3 66
5481 D6F4 7B                db      07bh,000h    ;
     D6F5 00
5482 D6F6 7C                db      07ch,07eh    ;
     D6F7 7E
5483 D6F8 7D                db      07dh,0aah    ;
     D6F9 FFFFFFAA
5484 D6FA 7E                db      07eh,02ch    ;
     D6FB 2C
5485 D6FC 7F                db      07fh,000h    ;
     D6FD 00
5486 D6FE 00                db      000h,031h    ;
     D6FF 31
5487 D700 08                db      008h,082h    ;
     D701 FFFFFF82
5488 D702 09                db      009h,0a7h    ;
     D703 FFFFFFA7
5489 D704 0A                db      00ah,035h    ;
     D705 35
5490 D706 0B                db      00bh,000h    ;
     D707 00
5491 D708 0C                db      00ch,000h    ;
     D709 00
5492 D70A 0D                db      00dh,000h    ;
     D70B 00
5493 D70C 0E                db      00eh,000h    ;
     D70D 00
5494 D70E 0F                db      00fh,000h    ;
     D70F 00
5495 D710 10                db      010h,07fh    ;
     D711 7F
5496 D712 11                db      011h,0dbh    ;
     D713 FFFFFFDB
5497 D714 12                db      012h,083h    ;
     D715 FFFFFF83
5498 D716 13                db      013h,000h    ;
     D717 00
5499 D718 14                db      014h,080h    ;
     D719 FFFFFF80
5500 D71A 15                db      015h,048h    ;
     D71B 48
5501 D71C 16                db      016h,0edh    ;
     D71D FFFFFFED
5502 D71E 17                db      017h,000h    ;
     D71F 00
5503 D720 18                db      018h,03fh    ;
     D721 3F
5504 D722 19                db      019h,0edh    ;
     D723 FFFFFFED
5505 D724 1A                db      01ah,0c3h    ;
     D725 FFFFFFC3
5506 D726 1B                db      01bh,000h    ;
     D727 00
5507 D728 1C                db      01ch,0c0h    ;
     D729 FFFFFFC0
5508 D72A 1D                db      01dh,012h    ;
     D72B 12
5509 D72C 1E                db      01eh,03dh    ;
     D72D 3D
5510 D72E 1F                db      01fh,000h    ;
     D72F 00
5511 D730 20                db      020h,03fh    ;
     D731 3F
5512 D732 21                db      021h,0edh    ;
     D733 FFFFFFED
5513 D734 22                db      022h,0c3h    ;
     D735 FFFFFFC3
5514 D736 23                db      023h,000h    ;
     D737 00
5515 D738 24                db      024h,07fh    ;
     D739 7F
5516 D73A 25                db      025h,0d9h    ;
     D73B FFFFFFD9
5517 D73C 26                db      026h,05eh    ;
     D73D 5E
5518 D73E 27                db      027h,000h    ;
     D73F 00
5519 D740 28                db      028h,080h    ;
     D741 FFFFFF80
5520 D742 29                db      029h,04dh    ;
     D743 4D
5521 D744 2A                db      02ah,038h    ;
     D745 38
5522 D746 2B                db      02bh,000h    ;
     D747 00
5523 D748 2C                db      02ch,03fh    ;
     D749 3F
5524 D74A 2D                db      02dh,0ech    ;
     D74B FFFFFFEC
5525 D74C 2E                db      02eh,0b0h    ;
     D74D FFFFFFB0
5526 D74E 2F                db      02fh,000h    ;
     D74F 00
5527 D750 30                db      030h,0c0h    ;
     D751 FFFFFFC0
5528 D752 31                db      031h,021h    ;
     D753 21
5529 D754 32                db      032h,092h    ;
     D755 FFFFFF92
5530 D756 33                db      033h,000h    ;
     D757 00
5531 D758 34                db      034h,03fh    ;
     D759 3F
5532 D75A 35                db      035h,0d0h    ;
     D75B FFFFFFD0
5533 D75C 36                db      036h,02ch    ;
     D75D 2C
5534 D75E 37                db      037h,000h    ;
     D75F 00
5535 D760 38                db      038h,07fh    ;
     D761 7F
5536 D762 39                db      039h,0a5h    ;
     D763 FFFFFFA5
5537 D764 3A                db      03ah,003h    ;
     D765 03
5538 D766 3B                db      03bh,000h    ;
     D767 00
5539 D768 3C                db      03ch,080h    ;
     D769 FFFFFF80
5540 D76A 3D                db      03dh,0b5h    ;
     D76B FFFFFFB5
5541 D76C 3E                db      03eh,07ah    ;
     D76D 7A
5542 D76E 3F                db      03fh,000h    ;
     D76F 00
5543 D770 40                db      040h,000h    ;
     D771 00
5544 D772 41                db      041h,000h    ;
     D773 00
5545 D774 42                db      042h,010h    ;
     D775 10
5546 D776 43                db      043h,000h    ;
     D777 00
5547 D778 44                db      044h,000h    ;
     D779 00
5548 D77A 45                db      045h,000h    ;
     D77B 00
5549 D77C 46                db      046h,010h    ;
     D77D 10
5550 D77E 47                db      047h,000h    ;
     D77F 00
5551 D780 48                db      048h,000h    ;
     D781 00
5552 D782 49                db      049h,000h    ;
     D783 00
5553 D784 4A                db      04ah,010h    ;
     D785 10
5554 D786 4B                db      04bh,000h    ;
     D787 00
5555 D788 4C                db      04ch,07fh    ;
     D789 7F
5556 D78A 4D                db      04dh,07eh    ;
     D78B 7E
5557 D78C 4E                db      04eh,0d1h    ;
     D78D FFFFFFD1
5558 D78E 4F                db      04fh,000h    ;
     D78F 00
5559 D790 50                db      050h,081h    ;
     D791 FFFFFF81
5560 D792 51                db      051h,000h    ;
     D793 00
5561 D794 52                db      052h,05ah    ;
     D795 5A
5562 D796 53                db      053h,000h    ;
     D797 00
5563 D798 54                db      054h,000h    ;
     D799 00
5564 D79A 55                db      055h,000h    ;
     D79B 00
5565 D79C 56                db      056h,040h    ;
     D79D 40
5566 D79E 57                db      057h,000h    ;
     D79F 00
5567 D7A0 58                db      058h,000h    ;
     D7A1 00
5568 D7A2 59                db      059h,000h    ;
     D7A3 00
5569 D7A4 5A                db      05ah,040h    ;
     D7A5 40
5570 D7A6 5B                db      05bh,000h    ;
     D7A7 00
5571 D7A8 5C                db      05ch,000h    ;
     D7A9 00
5572 D7AA 5D                db      05dh,000h    ;
     D7AB 00
5573 D7AC 5E                db      05eh,040h    ;
     D7AD 40
5574 D7AE 5F                db      05fh,000h    ;
     D7AF 00
5575 D7B0 60                db      060h,03fh    ;
     D7B1 3F
5576 D7B2 61                db      061h,07fh    ;
     D7B3 7F
5577 D7B4 62                db      062h,0d3h    ;
     D7B5 FFFFFFD3
5578 D7B6 63                db      063h,000h    ;
     D7B7 00
5579 D7B8 64                db      064h,000h    ;
     D7B9 00
5580 D7BA 65                db      065h,000h    ;
     D7BB 00
5581 D7BC 66                db      066h,000h    ;
     D7BD 00
5582 D7BE 67                db      067h,000h    ;
     D7BF 00
5583 D7C0 68                db      068h,000h    ;
     D7C1 00
5584 D7C2 69                db      069h,040h    ;
     D7C3 40
5585 D7C4 6A                db      06ah,017h    ;
     D7C5 17
5586 D7C6 6B                db      06bh,000h    ;
     D7C7 00
5587 D7C8 6C                db      06ch,000h    ;
     D7C9 00
5588 D7CA 6D                db      06dh,020h    ;
     D7CB 20
5589 D7CC 6E                db      06eh,00bh    ;
     D7CD 0B
5590 D7CE 6F                db      06fh,000h    ;
     D7CF 00
5591 D7D0 70                db      070h,000h    ;
     D7D1 00
5592 D7D2 71                db      071h,000h    ;
     D7D3 00
5593 D7D4 72                db      072h,000h    ;
     D7D5 00
5594 D7D6 73                db      073h,000h    ;
     D7D7 00
5595 D7D8 74                db      074h,07fh    ;
     D7D9 7F
5596 D7DA 75                db      075h,0ffh    ;
     D7DB FFFFFFFF
5597 D7DC 76                db      076h,0ffh    ;
     D7DD FFFFFFFF
5598 D7DE 77                db      077h,000h    ;
     D7DF 00
5599 D7E0 78                db      078h,000h    ;
     D7E1 00
5600 D7E2 79                db      079h,000h    ;
     D7E3 00
5601 D7E4 7A                db      07ah,000h    ;
     D7E5 00
5602 D7E6 7B                db      07bh,000h    ;
     D7E7 00
5603 D7E8 7C                db      07ch,000h    ;
     D7E9 00
5604 D7EA 7D                db      07dh,000h    ;
     D7EB 00
5605 D7EC 7E                db      07eh,000h    ;
     D7ED 00
5606 D7EE 7F                db      07fh,000h    ;
     D7EF 00
5607 D7F0 00                db      000h,032h    ;
     D7F1 32
5608 D7F2 08                db      008h,000h    ;
     D7F3 00
5609 D7F4 09                db      009h,000h    ;
     D7F5 00
5610 D7F6 0A                db      00ah,000h    ;
     D7F7 00
5611 D7F8 0B                db      00bh,000h    ;
     D7F9 00
5612 D7FA 0C                db      00ch,000h    ;
     D7FB 00
5613 D7FC 0D                db      00dh,000h    ;
     D7FD 00
5614 D7FE 0E                db      00eh,000h    ;
     D7FF 00
5615 D800 0F                db      00fh,000h    ;
     D801 00
5616 D802 10                db      010h,07fh    ;
     D803 7F
5617 D804 11                db      011h,0ffh    ;
     D805 FFFFFFFF
5618 D806 12                db      012h,0ffh    ;
     D807 FFFFFFFF
5619 D808 13                db      013h,000h    ;
     D809 00
5620 D80A 14                db      014h,000h    ;
     D80B 00
5621 D80C 15                db      015h,000h    ;
     D80D 00
5622 D80E 16                db      016h,000h    ;
     D80F 00
5623 D810 17                db      017h,000h    ;
     D811 00
5624 D812 18                db      018h,000h    ;
     D813 00
5625 D814 19                db      019h,000h    ;
     D815 00
5626 D816 1A                db      01ah,000h    ;
     D817 00
5627 D818 1B                db      01bh,000h    ;
     D819 00
5628 D81A 1C                db      01ch,000h    ;
     D81B 00
5629 D81C 1D                db      01dh,000h    ;
     D81D 00
5630 D81E 1E                db      01eh,000h    ;
     D81F 00
5631 D820 1F                db      01fh,000h    ;
     D821 00
5632 D822 20                db      020h,000h    ;
     D823 00
5633 D824 21                db      021h,000h    ;
     D825 00
5634 D826 22                db      022h,000h    ;
     D827 00
5635 D828 23                db      023h,000h    ;
     D829 00
5636 D82A 24                db      024h,040h    ;
     D82B 40
5637 D82C 25                db      025h,000h    ;
     D82D 00
5638 D82E 26                db      026h,000h    ;
     D82F 00
5639 D830 27                db      027h,000h    ;
     D831 00
5640 D832 28                db      028h,07fh    ;
     D833 7F
5641 D834 29                db      029h,0ffh    ;
     D835 FFFFFFFF
5642 D836 2A                db      02ah,0ffh    ;
     D837 FFFFFFFF
5643 D838 2B                db      02bh,000h    ;
     D839 00
5644 D83A 2C                db      02ch,000h    ;
     D83B 00
5645 D83C 2D                db      02dh,015h    ;
     D83D 15
5646 D83E 2E                db      02eh,056h    ;
     D83F 56
5647 D840 2F                db      02fh,000h    ;
     D841 00
5648 D842 30                db      030h,000h    ;
     D843 00
5649 D844 31                db      031h,015h    ;
     D845 15
5650 D846 32                db      032h,056h    ;
     D847 56
5651 D848 33                db      033h,000h    ;
     D849 00
5652 D84A 34                db      034h,000h    ;
     D84B 00
5653 D84C 35                db      035h,015h    ;
     D84D 15
5654 D84E 36                db      036h,056h    ;
     D84F 56
5655 D850 37                db      037h,000h    ;
     D851 00
5656 D852 38                db      038h,079h    ;
     D853 79
5657 D854 39                db      039h,077h    ;
     D855 77
5658 D856 3A                db      03ah,0abh    ;
     D857 FFFFFFAB
5659 D858 3B                db      03bh,000h    ;
     D859 00
5660 D85A 3C                db      03ch,08ch    ;
     D85B FFFFFF8C
5661 D85C 3D                db      03dh,0bbh    ;
     D85D FFFFFFBB
5662 D85E 3E                db      03eh,050h    ;
     D85F 50
5663 D860 3F                db      03fh,000h    ;
     D861 00
5664 D862 40                db      040h,059h    ;
     D863 59
5665 D864 41                db      041h,00ch    ;
     D865 0C
5666 D866 42                db      042h,0dch    ;
     D867 FFFFFFDC
5667 D868 43                db      043h,000h    ;
     D869 00
5668 D86A 44                db      044h,0a6h    ;
     D86B FFFFFFA6
5669 D86C 45                db      045h,0f3h    ;
     D86D FFFFFFF3
5670 D86E 46                db      046h,024h    ;
     D86F 24
5671 D870 47                db      047h,000h    ;
     D871 00
5672 D872 48                db      048h,059h    ;
     D873 59
5673 D874 49                db      049h,00ch    ;
     D875 0C
5674 D876 4A                db      04ah,0dch    ;
     D877 FFFFFFDC
5675 D878 4B                db      04bh,000h    ;
     D879 00
5676 D87A 4C                db      04ch,055h    ;
     D87B 55
5677 D87C 4D                db      04dh,086h    ;
     D87D FFFFFF86
5678 D87E 4E                db      04eh,0e0h    ;
     D87F FFFFFFE0
5679 D880 4F                db      04fh,000h    ;
     D881 00
5680 D882 50                db      050h,0c6h    ;
     D883 FFFFFFC6
5681 D884 51                db      051h,0dah    ;
     D885 FFFFFFDA
5682 D886 52                db      052h,050h    ;
     D887 50
5683 D888 53                db      053h,000h    ;
     D889 00
5684 D88A 54                db      054h,003h    ;
     D88B 03
5685 D88C 55                db      055h,085h    ;
     D88D FFFFFF85
5686 D88E 56                db      056h,0fch    ;
     D88F FFFFFFFC
5687 D890 57                db      057h,000h    ;
     D891 00
5688 D892 58                db      058h,003h    ;
     D893 03
5689 D894 59                db      059h,085h    ;
     D895 FFFFFF85
5690 D896 5A                db      05ah,0fch    ;
     D897 FFFFFFFC
5691 D898 5B                db      05bh,000h    ;
     D899 00
5692 D89A 5C                db      05ch,003h    ;
     D89B 03
5693 D89C 5D                db      05dh,085h    ;
     D89D FFFFFF85
5694 D89E 5E                db      05eh,0fch    ;
     D89F FFFFFFFC
5695 D8A0 5F                db      05fh,000h    ;
     D8A1 00
5696 D8A2 60                db      060h,055h    ;
     D8A3 55
5697 D8A4 61                db      061h,086h    ;
     D8A5 FFFFFF86
5698 D8A6 62                db      062h,0e0h    ;
     D8A7 FFFFFFE0
5699 D8A8 63                db      063h,000h    ;
     D8A9 00
5700 D8AA 64                db      064h,0c6h    ;
     D8AB FFFFFFC6
5701 D8AC 65                db      065h,0dah    ;
     D8AD FFFFFFDA
5702 D8AE 66                db      066h,050h    ;
     D8AF 50
5703 D8B0 67                db      067h,000h    ;
     D8B1 00
5704 D8B2 68                db      068h,078h    ;
     D8B3 78
5705 D8B4 69                db      069h,003h    ;
     D8B5 03
5706 D8B6 6A                db      06ah,081h    ;
     D8B7 FFFFFF81
5707 D8B8 6B                db      06bh,000h    ;
     D8B9 00
5708 D8BA 6C                db      06ch,087h    ;
     D8BB FFFFFF87
5709 D8BC 6D                db      06dh,0fch    ;
     D8BD FFFFFFFC
5710 D8BE 6E                db      06eh,07fh    ;
     D8BF 7F
5711 D8C0 6F                db      06fh,000h    ;
     D8C1 00
5712 D8C2 70                db      070h,078h    ;
     D8C3 78
5713 D8C4 71                db      071h,003h    ;
     D8C5 03
5714 D8C6 72                db      072h,081h    ;
     D8C7 FFFFFF81
5715 D8C8 73                db      073h,000h    ;
     D8C9 00
5716 D8CA 74                db      074h,077h    ;
     D8CB 77
5717 D8CC 75                db      075h,0e2h    ;
     D8CD FFFFFFE2
5718 D8CE 76                db      076h,094h    ;
     D8CF FFFFFF94
5719 D8D0 77                db      077h,000h    ;
     D8D1 00
5720 D8D2 78                db      078h,08fh    ;
     D8D3 FFFFFF8F
5721 D8D4 79                db      079h,0b7h    ;
     D8D5 FFFFFFB7
5722 D8D6 7A                db      07ah,023h    ;
     D8D7 23
5723 D8D8 7B                db      07bh,000h    ;
     D8D9 00
5724 D8DA 7C                db      07ch,07fh    ;
     D8DB 7F
5725 D8DC 7D                db      07dh,0ffh    ;
     D8DD FFFFFFFF
5726 D8DE 7E                db      07eh,0ffh    ;
     D8DF FFFFFFFF
5727 D8E0 7F                db      07fh,000h    ;
     D8E1 00
5728 D8E2 00                db      000h,033h    ;
     D8E3 33
5729 D8E4 08                db      008h,000h    ;
     D8E5 00
5730 D8E6 09                db      009h,000h    ;
     D8E7 00
5731 D8E8 0A                db      00ah,000h    ;
     D8E9 00
5732 D8EA 0B                db      00bh,000h    ;
     D8EB 00
5733 D8EC 0C                db      00ch,000h    ;
     D8ED 00
5734 D8EE 0D                db      00dh,000h    ;
     D8EF 00
5735 D8F0 0E                db      00eh,000h    ;
     D8F1 00
5736 D8F2 0F                db      00fh,000h    ;
     D8F3 00
5737 D8F4 10                db      010h,000h    ;
     D8F5 00
5738 D8F6 11                db      011h,080h    ;
     D8F7 FFFFFF80
5739 D8F8 12                db      012h,000h    ;
     D8F9 00
5740 D8FA 13                db      013h,000h    ;
     D8FB 00
5741 D8FC 14                db      014h,014h    ;
     D8FD 14
5742 D8FE 15                db      015h,0c0h    ;
     D8FF FFFFFFC0
5743 D900 16                db      016h,000h    ;
     D901 00
5744 D902 17                db      017h,000h    ;
     D903 00
5745 D904 18                db      018h,009h    ;
     D905 09
5746 D906 19                db      019h,000h    ;
     D907 00
5747 D908 1A                db      01ah,000h    ;
     D909 00
5748 D90A 1B                db      01bh,000h    ;
     D90B 00
5749 D90C 1C                db      01ch,020h    ;
     D90D 20
5750 D90E 1D                db      01dh,000h    ;
     D90F 00
5751 D910 1E                db      01eh,000h    ;
     D911 00
5752 D912 1F                db      01fh,000h    ;
     D913 00
5753 D914 20                db      020h,080h    ;
     D915 FFFFFF80
5754 D916 21                db      021h,000h    ;
     D917 00
5755 D918 22                db      022h,001h    ;
     D919 01
5756 D91A 23                db      023h,000h    ;
     D91B 00
5757 D91C 24                db      024h,07fh    ;
     D91D 7F
5758 D91E 25                db      025h,0ffh    ;
     D91F FFFFFFFF
5759 D920 26                db      026h,0feh    ;
     D921 FFFFFFFE
5760 D922 27                db      027h,000h    ;
     D923 00
5761 D924 28                db      028h,07fh    ;
     D925 7F
5762 D926 29                db      029h,0ffh    ;
     D927 FFFFFFFF
5763 D928 2A                db      02ah,0fdh    ;
     D929 FFFFFFFD
5764 D92A 2B                db      02bh,000h    ;
     D92B 00
5765 D92C 2C                db      02ch,000h    ;
     D92D 00
5766 D92E 2D                db      02dh,000h    ;
     D92F 00
5767 D930 2E                db      02eh,010h    ;
     D931 10
5768 D932 2F                db      02fh,000h    ;
     D933 00
5769 D934 30                db      030h,000h    ;
     D935 00
5770 D936 31                db      031h,000h    ;
     D937 00
5771 D938 32                db      032h,015h    ;
     D939 15
5772 D93A 33                db      033h,000h    ;
     D93B 00
5773 D93C 34                db      034h,000h    ;
     D93D 00
5774 D93E 35                db      035h,000h    ;
     D93F 00
5775 D940 36                db      036h,000h    ;
     D941 00
5776 D942 37                db      037h,000h    ;
     D943 00
5777 D944 38                db      038h,000h    ;
     D945 00
5778 D946 39                db      039h,000h    ;
     D947 00
5779 D948 3A                db      03ah,000h    ;
     D949 00
5780 D94A 3B                db      03bh,000h    ;
     D94B 00
5781 D94C 3C                db      03ch,03fh    ;
     D94D 3F
5782 D94E 3D                db      03dh,0aeh    ;
     D94F FFFFFFAE
5783 D950 3E                db      03eh,014h    ;
     D951 14
5784 D952 3F                db      03fh,000h    ;
     D953 00
5785 D954 40                db      040h,0c0h    ;
     D955 FFFFFFC0
5786 D956 41                db      041h,000h    ;
     D957 00
5787 D958 42                db      042h,000h    ;
     D959 00
5788 D95A 43                db      043h,000h    ;
     D95B 00
5789 D95C 44                db      044h,0c0h    ;
     D95D FFFFFFC0
5790 D95E 45                db      045h,000h    ;
     D95F 00
5791 D960 46                db      046h,000h    ;
     D961 00
5792 D962 47                db      047h,000h    ;
     D963 00
5793 D964 48                db      048h,000h    ;
     D965 00
5794 D966 49                db      049h,000h    ;
     D967 00
5795 D968 4A                db      04ah,000h    ;
     D969 00
5796 D96A 4B                db      04bh,000h    ;
     D96B 00
5797 D96C 4C                db      04ch,03ah    ;
     D96D 3A
5798 D96E 4D                db      04dh,000h    ;
     D96F 00
5799 D970 4E                db      04eh,000h    ;
     D971 00
5800 D972 4F                db      04fh,000h    ;
     D973 00
5801 D974 50                db      050h,001h    ;
     D975 01
5802 D976 51                db      051h,040h    ;
     D977 40
5803 D978 52                db      052h,000h    ;
     D979 00
5804 D97A 53                db      053h,000h    ;
     D97B 00
5805 D97C 54                db      054h,046h    ;
     D97D 46
5806 D97E 55                db      055h,080h    ;
     D97F FFFFFF80
5807 D980 56                db      056h,000h    ;
     D981 00
5808 D982 57                db      057h,000h    ;
     D983 00
5809 D984 58                db      058h,059h    ;
     D985 59
5810 D986 59                db      059h,080h    ;
     D987 FFFFFF80
5811 D988 5A                db      05ah,000h    ;
     D989 00
5812 D98A 5B                db      05bh,000h    ;
     D98B 00
5813 D98C 5C                db      05ch,000h    ;
     D98D 00
5814 D98E 5D                db      05dh,000h    ;
     D98F 00
5815 D990 5E                db      05eh,000h    ;
     D991 00
5816 D992 5F                db      05fh,000h    ;
     D993 00
5817 D994 60                db      060h,000h    ;
     D995 00
5818 D996 61                db      061h,000h    ;
     D997 00
5819 D998 62                db      062h,000h    ;
     D999 00
5820 D99A 63                db      063h,000h    ;
     D99B 00
5821 D99C 64                db      064h,000h    ;
     D99D 00
5822 D99E 65                db      065h,000h    ;
     D99F 00
5823 D9A0 66                db      066h,000h    ;
     D9A1 00
5824 D9A2 67                db      067h,000h    ;
     D9A3 00
5825 D9A4 68                db      068h,000h    ;
     D9A5 00
5826 D9A6 69                db      069h,000h    ;
     D9A7 00
5827 D9A8 6A                db      06ah,000h    ;
     D9A9 00
5828 D9AA 6B                db      06bh,000h    ;
     D9AB 00
5829 D9AC 6C                db      06ch,000h    ;
     D9AD 00
5830 D9AE 6D                db      06dh,000h    ;
     D9AF 00
5831 D9B0 6E                db      06eh,000h    ;
     D9B1 00
5832 D9B2 6F                db      06fh,000h    ;
     D9B3 00
5833 D9B4 70                db      070h,000h    ;
     D9B5 00
5834 D9B6 71                db      071h,000h    ;
     D9B7 00
5835 D9B8 72                db      072h,000h    ;
     D9B9 00
5836 D9BA 73                db      073h,000h    ;
     D9BB 00
5837 D9BC 74                db      074h,000h    ;
     D9BD 00
5838 D9BE 75                db      075h,000h    ;
     D9BF 00
5839 D9C0 76                db      076h,000h    ;
     D9C1 00
5840 D9C2 77                db      077h,000h    ;
     D9C3 00
5841 D9C4 78                db      078h,000h    ;
     D9C5 00
5842 D9C6 79                db      079h,000h    ;
     D9C7 00
5843 D9C8 7A                db      07ah,000h    ;
     D9C9 00
5844 D9CA 7B                db      07bh,000h    ;
     D9CB 00
5845 D9CC 7C                db      07ch,000h    ;
     D9CD 00
5846 D9CE 7D                db      07dh,000h    ;
     D9CF 00
5847 D9D0 7E                db      07eh,000h    ;
     D9D1 00
5848 D9D2 7F                db      07fh,000h    ;
     D9D3 00
5849 D9D4 00                db      000h,034h    ;
     D9D5 34
5850 D9D6 08                db      008h,000h    ;
     D9D7 00
5851 D9D8 09                db      009h,000h    ;
     D9D9 00
5852 D9DA 0A                db      00ah,000h    ;
     D9DB 00
5853 D9DC 0B                db      00bh,000h    ;
     D9DD 00
5854 D9DE 0C                db      00ch,000h    ;
     D9DF 00
5855 D9E0 0D                db      00dh,000h    ;
     D9E1 00
5856 D9E2 0E                db      00eh,000h    ;
     D9E3 00
5857 D9E4 0F                db      00fh,000h    ;
     D9E5 00
5858 D9E6 10                db      010h,000h    ;
     D9E7 00
5859 D9E8 11                db      011h,000h    ;
     D9E9 00
5860 D9EA 12                db      012h,000h    ;
     D9EB 00
5861 D9EC 13                db      013h,000h    ;
     D9ED 00
5862 D9EE 14                db      014h,000h    ;
     D9EF 00
5863 D9F0 15                db      015h,000h    ;
     D9F1 00
5864 D9F2 16                db      016h,000h    ;
     D9F3 00
5865 D9F4 17                db      017h,000h    ;
     D9F5 00
5866 D9F6 18                db      018h,000h    ;
     D9F7 00
5867 D9F8 19                db      019h,000h    ;
     D9F9 00
5868 D9FA 1A                db      01ah,000h    ;
     D9FB 00
5869 D9FC 1B                db      01bh,000h    ;
     D9FD 00
5870 D9FE 1C                db      01ch,000h    ;
     D9FF 00
5871 DA00 1D                db      01dh,000h    ;
     DA01 00
5872 DA02 1E                db      01eh,000h    ;
     DA03 00
5873 DA04 1F                db      01fh,000h    ;
     DA05 00
5874 DA06 20                db      020h,000h    ;
     DA07 00
5875 DA08 21                db      021h,000h    ;
     DA09 00
5876 DA0A 22                db      022h,000h    ;
     DA0B 00
5877 DA0C 23                db      023h,000h    ;
     DA0D 00
5878 DA0E 24                db      024h,000h    ;
     DA0F 00
5879 DA10 25                db      025h,000h    ;
     DA11 00
5880 DA12 26                db      026h,000h    ;
     DA13 00
5881 DA14 27                db      027h,000h    ;
     DA15 00
5882 DA16 28                db      028h,000h    ;
     DA17 00
5883 DA18 29                db      029h,000h    ;
     DA19 00
5884 DA1A 2A                db      02ah,000h    ;
     DA1B 00
5885 DA1C 2B                db      02bh,000h    ;
     DA1D 00
5886 DA1E 2C                db      02ch,000h    ;
     DA1F 00
5887 DA20 2D                db      02dh,000h    ;
     DA21 00
5888 DA22 2E                db      02eh,000h    ;
     DA23 00
5889 DA24 2F                db      02fh,000h    ;
     DA25 00
5890 DA26 30                db      030h,000h    ;
     DA27 00
5891 DA28 31                db      031h,000h    ;
     DA29 00
5892 DA2A 32                db      032h,000h    ;
     DA2B 00
5893 DA2C 33                db      033h,000h    ;
     DA2D 00
5894 DA2E 34                db      034h,040h    ;
     DA2F 40
5895 DA30 35                db      035h,000h    ;
     DA31 00
5896 DA32 36                db      036h,000h    ;
     DA33 00
5897 DA34 37                db      037h,000h    ;
     DA35 00
5898 DA36 38                db      038h,000h    ;
     DA37 00
5899 DA38 39                db      039h,004h    ;
     DA39 04
5900 DA3A 3A                db      03ah,000h    ;
     DA3B 00
5901 DA3C 3B                db      03bh,000h    ;
     DA3D 00
5902 DA3E 3C                db      03ch,000h    ;
     DA3F 00
5903 DA40 3D                db      03dh,000h    ;
     DA41 00
5904 DA42 3E                db      03eh,000h    ;
     DA43 00
5905 DA44 3F                db      03fh,000h    ;
     DA45 00
5906 DA46 40                db      040h,000h    ;
     DA47 00
5907 DA48 41                db      041h,000h    ;
     DA49 00
5908 DA4A 42                db      042h,000h    ;
     DA4B 00
5909 DA4C 43                db      043h,000h    ;
     DA4D 00
5910 DA4E 44                db      044h,040h    ;
     DA4F 40
5911 DA50 45                db      045h,000h    ;
     DA51 00
5912 DA52 46                db      046h,000h    ;
     DA53 00
5913 DA54 47                db      047h,000h    ;
     DA55 00
5914 DA56 00                db      000h,03eh    
     DA57 3E
5915 DA58 08                db      008h,07fh    
     DA59 7F
5916 DA5A 09                db      009h,0ffh    
     DA5B FFFFFFFF
5917 DA5C 0A                db      00ah,0ffh    
     DA5D FFFFFFFF
5918 DA5E 0B                db      00bh,000h    
     DA5F 00
5919 DA60 0C                db      00ch,080h    
     DA61 FFFFFF80
5920 DA62 0D                db      00dh,000h    
     DA63 00
5921 DA64 0E                db      00eh,001h    
     DA65 01
5922 DA66 0F                db      00fh,000h    
     DA67 00
5923 DA68 10                db      010h,07fh    
     DA69 7F
5924 DA6A 11                db      011h,0ffh    
     DA6B FFFFFFFF
5925 DA6C 12                db      012h,0ffh    
     DA6D FFFFFFFF
5926 DA6E 13                db      013h,000h    
     DA6F 00
5927 DA70 14                db      014h,0ffh    
     DA71 FFFFFFFF
5928 DA72 15                db      015h,0ffh    
     DA73 FFFFFFFF
5929 DA74 16                db      016h,0ffh    
     DA75 FFFFFFFF
5930 DA76 17                db      017h,000h    
     DA77 00
5931 DA78 18                db      018h,080h    
     DA79 FFFFFF80
5932 DA7A 19                db      019h,000h    
     DA7B 00
5933 DA7C 1A                db      01ah,000h    
     DA7D 00
5934 DA7E 1B                db      01bh,000h    
     DA7F 00
5935 DA80 1C                db      01ch,000h    
     DA81 00
5936 DA82 1D                db      01dh,006h    
     DA83 06
5937 DA84 1E                db      01eh,0d3h    
     DA85 FFFFFFD3
5938 DA86 1F                db      01fh,000h    
     DA87 00
5939 DA88 20                db      020h,07fh    
     DA89 7F
5940 DA8A 21                db      021h,0f9h    
     DA8B FFFFFFF9
5941 DA8C 22                db      022h,02dh    
     DA8D 2D
5942 DA8E 23                db      023h,000h    
     DA8F 00
5943 DA90 24                db      024h,000h    
     DA91 00
5944 DA92 25                db      025h,028h    
     DA93 28
5945 DA94 26                db      026h,0efh    
     DA95 FFFFFFEF
5946 DA96 27                db      027h,000h    
     DA97 00
5947 DA98 28                db      028h,07fh    
     DA99 7F
5948 DA9A 29                db      029h,0d7h    
     DA9B FFFFFFD7
5949 DA9C 2A                db      02ah,011h    
     DA9D 11
5950 DA9E 2B                db      02bh,000h    
     DA9F 00
5951 DAA0 2C                db      02ch,000h    
     DAA1 00
5952 DAA2 2D                db      02dh,00dh    
     DAA3 0D
5953 DAA4 2E                db      02eh,0a7h    
     DAA5 FFFFFFA7
5954 DAA6 2F                db      02fh,000h    
     DAA7 00
5955 DAA8 30                db      030h,07fh    
     DAA9 7F
5956 DAAA 31                db      031h,0f2h    
     DAAB FFFFFFF2
5957 DAAC 32                db      032h,059h    
     DAAD 59
5958 DAAE 33                db      033h,000h    
     DAAF 00
5959 DAB0 34                db      034h,000h    
     DAB1 00
5960 DAB2 35                db      035h,011h    
     DAB3 11
5961 DAB4 36                db      036h,010h    
     DAB5 10
5962 DAB6 37                db      037h,000h    
     DAB7 00
5963 DAB8 38                db      038h,07fh    
     DAB9 7F
5964 DABA 39                db      039h,0eeh    
     DABB FFFFFFEE
5965 DABC 3A                db      03ah,0f0h    
     DABD FFFFFFF0
5966 DABE 3B                db      03bh,000h    
     DABF 00
5967 DAC0 3C                db      03ch,000h    
     DAC1 00
5968 DAC2 3D                db      03dh,066h    
     DAC3 66
5969 DAC4 3E                db      03eh,03dh    
     DAC5 3D
5970 DAC6 3F                db      03fh,000h    
     DAC7 00
5971 DAC8 40                db      040h,07fh    
     DAC9 7F
5972 DACA 41                db      041h,099h    
     DACB FFFFFF99
5973 DACC 42                db      042h,0c3h    
     DACD FFFFFFC3
5974 DACE 43                db      043h,000h    
     DACF 00
5975 DAD0 44                db      044h,000h    
     DAD1 00
5976 DAD2 45                db      045h,022h    
     DAD3 22
5977 DAD4 46                db      046h,01eh    
     DAD5 1E
5978 DAD6 47                db      047h,000h    
     DAD7 00
5979 DAD8 48                db      048h,07fh    
     DAD9 7F
5980 DADA 49                db      049h,0ddh    
     DADB FFFFFFDD
5981 DADC 4A                db      04ah,0e2h    
     DADD FFFFFFE2
5982 DADE 4B                db      04bh,000h    
     DADF 00
5983 DAE0 4C                db      04ch,000h    
     DAE1 00
5984 DAE2 4D                db      04dh,088h    
     DAE3 FFFFFF88
5985 DAE4 4E                db      04eh,040h    
     DAE5 40
5986 DAE6 4F                db      04fh,000h    
     DAE7 00
5987 DAE8 50                db      050h,07fh    
     DAE9 7F
5988 DAEA 51                db      051h,077h    
     DAEB 77
5989 DAEC 52                db      052h,0c0h    
     DAED FFFFFFC0
5990 DAEE 53                db      053h,000h    
     DAEF 00
5991 DAF0 54                db      054h,003h    
     DAF1 03
5992 DAF2 55                db      055h,029h    
     DAF3 29
5993 DAF4 56                db      056h,00bh    
     DAF5 0B
5994 DAF6 57                db      057h,000h    
     DAF7 00
5995 DAF8 58                db      058h,07ch    
     DAF9 7C
5996 DAFA 59                db      059h,0d6h    
     DAFB FFFFFFD6
5997 DAFC 5A                db      05ah,0f5h    
     DAFD FFFFFFF5
5998 DAFE 5B                db      05bh,000h    
     DAFF 00
5999 DB00 5C                db      05ch,001h    
     DB01 01
6000 DB02 5D                db      05dh,00fh    
     DB03 0F
6001 DB04 5E                db      05eh,0efh    
     DB05 FFFFFFEF
6002 DB06 5F                db      05fh,000h    
     DB07 00
6003 DB08 60                db      060h,07eh    
     DB09 7E
6004 DB0A 61                db      061h,0f0h    
     DB0B FFFFFFF0
6005 DB0C 62                db      062h,011h    
     DB0D 11
6006 DB0E 63                db      063h,000h    
     DB0F 00
6007 DB10 64                db      064h,000h    
     DB11 00
6008 DB12 65                db      065h,000h    
     DB13 00
6009 DB14 66                db      066h,000h    
     DB15 00
6010 DB16 67                db      067h,000h    
     DB17 00
6011 DB18 68                db      068h,000h    
     DB19 00
6012 DB1A 69                db      069h,000h    
     DB1B 00
6013 DB1C 6A                db      06ah,000h    
     DB1D 00
6014 DB1E 6B                db      06bh,000h    
     DB1F 00
6015 DB20 6C                db      06ch,000h    
     DB21 00
6016 DB22 6D                db      06dh,000h    
     DB23 00
6017 DB24 6E                db      06eh,000h    
     DB25 00
6018 DB26 6F                db      06fh,000h    
     DB27 00
6019 DB28 70                db      070h,050h    
     DB29 50
6020 DB2A 71                db      071h,000h    
     DB2B 00
6021 DB2C 72                db      072h,000h    
     DB2D 00
6022 DB2E 73                db      073h,000h    
     DB2F 00
6023 DB30 74                db      074h,014h    
     DB31 14
6024 DB32 75                db      075h,000h    
     DB33 00
6025 DB34 76                db      076h,000h    
     DB35 00
6026 DB36 77                db      077h,000h    
     DB37 00
6027 DB38 78                db      078h,000h    
     DB39 00
6028 DB3A 79                db      079h,000h    
     DB3B 00
6029 DB3C 7A                db      07ah,000h    
     DB3D 00
6030 DB3E 7B                db      07bh,000h    
     DB3F 00
6031 DB40 7C                db      07ch,000h    
     DB41 00
6032 DB42 7D                db      07dh,000h    
     DB43 00
6033 DB44 7E                db      07eh,000h    
     DB45 00
6034 DB46 7F                db      07fh,000h    
     DB47 00
6035 DB48 00                db      000h,03fh    
     DB49 3F
6036 DB4A 08                db      008h,0c0h    
     DB4B FFFFFFC0
6037 DB4C 09                db      009h,000h    
     DB4D 00
6038 DB4E 0A                db      00ah,000h    
     DB4F 00
6039 DB50 0B                db      00bh,000h    
     DB51 00
6040 DB52 0C                db      00ch,080h    
     DB53 FFFFFF80
6041 DB54 0D                db      00dh,000h    
     DB55 00
6042 DB56 0E                db      00eh,000h    
     DB57 00
6043 DB58 0F                db      00fh,000h    
     DB59 00
6044 DB5A 10                db      010h,040h    
     DB5B 40
6045 DB5C 11                db      011h,000h    
     DB5D 00
6046 DB5E 12                db      012h,000h    
     DB5F 00
6047 DB60 13                db      013h,000h    
     DB61 00
6048 DB62 14                db      014h,000h    
     DB63 00
6049 DB64 15                db      015h,000h    
     DB65 00
6050 DB66 16                db      016h,000h    
     DB67 00
6051 DB68 17                db      017h,000h    
     DB69 00
6052 DB6A 18                db      018h,0e3h    
     DB6B FFFFFFE3
6053 DB6C 19                db      019h,040h    
     DB6D 40
6054 DB6E 1A                db      01ah,000h    
     DB6F 00
6055 DB70 1B                db      01bh,000h    
     DB71 00
6056 DB72 1C                db      01ch,0d7h    
     DB73 FFFFFFD7
6057 DB74 1D                db      01dh,041h    
     DB75 41
6058 DB76 1E                db      01eh,0a0h    
     DB77 FFFFFFA0
6059 DB78 1F                db      01fh,000h    
     DB79 00
6060 DB7A 20                db      020h,0ffh    
     DB7B FFFFFFFF
6061 DB7C 21                db      021h,0f0h    
     DB7D FFFFFFF0
6062 DB7E 22                db      022h,000h    
     DB7F 00
6063 DB80 23                db      023h,000h    
     DB81 00
6064 DB82 24                db      024h,088h    
     DB83 FFFFFF88
6065 DB84 25                db      025h,000h    
     DB85 00
6066 DB86 26                db      026h,000h    
     DB87 00
6067 DB88 27                db      027h,000h    
     DB89 00
6068 DB8A 28                db      028h,018h    
     DB8B 18
6069 DB8C 29                db      029h,000h    
     DB8D 00
6070 DB8E 2A                db      02ah,000h    
     DB8F 00
6071 DB90 2B                db      02bh,000h    
     DB91 00
6072 DB92 2C                db      02ch,000h    
     DB93 00
6073 DB94 2D                db      02dh,000h    
     DB95 00
6074 DB96 2E                db      02eh,000h    
     DB97 00
6075 DB98 2F                db      02fh,000h    
     DB99 00
6076 DB9A 30                db      030h,000h    
     DB9B 00
6077 DB9C 31                db      031h,000h    
     DB9D 00
6078 DB9E 32                db      032h,000h    
     DB9F 00
6079 DBA0 33                db      033h,000h    
     DBA1 00
6080 DBA2 34                db      034h,000h    
     DBA3 00
6081 DBA4 35                db      035h,000h    
     DBA5 00
6082 DBA6 36                db      036h,000h    
     DBA7 00
6083 DBA8 37                db      037h,000h    
     DBA9 00
6084 DBAA 38                db      038h,030h    
     DBAB 30
6085 DBAC 39                db      039h,000h    
     DBAD 00
6086 DBAE 3A                db      03ah,000h    
     DBAF 00
6087 DBB0 3B                db      03bh,000h    
     DBB1 00
6088 DBB2 3C                db      03ch,0d0h    
     DBB3 FFFFFFD0
6089 DBB4 3D                db      03dh,000h    
     DBB5 00
6090 DBB6 3E                db      03eh,000h    
     DBB7 00
6091 DBB8 3F                db      03fh,000h    
     DBB9 00
6092 DBBA 40                db      040h,000h    
     DBBB 00
6093 DBBC 41                db      041h,003h    
     DBBD 03
6094 DBBE 42                db      042h,084h    
     DBBF FFFFFF84
6095 DBC0 43                db      043h,000h    
     DBC1 00
6096 DBC2 44                db      044h,000h    
     DBC3 00
6097 DBC4 45                db      045h,0b2h    
     DBC5 FFFFFFB2
6098 DBC6 46                db      046h,055h    
     DBC7 55
6099 DBC8 47                db      047h,000h    
     DBC9 00
6100 DBCA 48                db      048h,00eh    
     DBCB 0E
6101 DBCC 49                db      049h,05bh    
     DBCD 5B
6102 DBCE 4A                db      04ah,0deh    
     DBCF FFFFFFDE
6103 DBD0 4B                db      04bh,000h    
     DBD1 00
6104 DBD2 4C                db      04ch,07fh    
     DBD3 7F
6105 DBD4 4D                db      04dh,0ffh    
     DBD5 FFFFFFFF
6106 DBD6 4E                db      04eh,0ffh    
     DBD7 FFFFFFFF
6107 DBD8 4F                db      04fh,000h    
     DBD9 00
6108 DBDA 50                db      050h,000h    
     DBDB 00
6109 DBDC 51                db      051h,000h    
     DBDD 00
6110 DBDE 52                db      052h,000h    
     DBDF 00
6111 DBE0 53                db      053h,000h    
     DBE1 00
6112 DBE2 54                db      054h,002h    
     DBE3 02
6113 DBE4 55                db      055h,000h    
     DBE5 00
6114 DBE6 56                db      056h,000h    
     DBE7 00
6115 DBE8 57                db      057h,000h    
     DBE9 00
6116 DBEA 58                db      058h,020h    
     DBEB 20
6117 DBEC 59                db      059h,000h    
     DBED 00
6118 DBEE 5A                db      05ah,000h    
     DBEF 00
6119 DBF0 5B                db      05bh,000h    
     DBF1 00
6120 DBF2 5C                db      05ch,000h    
     DBF3 00
6121 DBF4 5D                db      05dh,051h    
     DBF5 51
6122 DBF6 5E                db      05eh,026h    
     DBF7 26
6123 DBF8 5F                db      05fh,000h    
     DBF9 00
6124 DBFA 60                db      060h,040h    
     DBFB 40
6125 DBFC 61                db      061h,000h    
     DBFD 00
6126 DBFE 62                db      062h,000h    
     DBFF 00
6127 DC00 63                db      063h,000h    
     DC01 00
6128 DC02 64                db      064h,000h    
     DC03 00
6129 DC04 65                db      065h,00ch    
     DC05 0C
6130 DC06 66                db      066h,0dch    
     DC07 FFFFFFDC
6131 DC08 67                db      067h,000h    
     DC09 00
6132 DC0A 68                db      068h,002h    
     DC0B 02
6133 DC0C 69                db      069h,000h    
     DC0D 00
6134 DC0E 6A                db      06ah,000h    
     DC0F 00
6135 DC10 6B                db      06bh,000h    
     DC11 00
6136 DC12 6C                db      06ch,002h    
     DC13 02
6137 DC14 6D                db      06dh,000h    
     DC15 00
6138 DC16 6E                db      06eh,000h    
     DC17 00
6139 DC18 6F                db      06fh,000h    
     DC19 00
6140 DC1A 70                db      070h,000h    
     DC1B 00
6141 DC1C 71                db      071h,000h    
     DC1D 00
6142 DC1E 72                db      072h,000h    
     DC1F 00
6143 DC20 73                db      073h,000h    
     DC21 00
6144 DC22 74                db      074h,000h    
     DC23 00
6145 DC24 75                db      075h,016h    
     DC25 16
6146 DC26 76                db      076h,05ah    
     DC27 5A
6147 DC28 77                db      077h,000h    
     DC29 00
6148 DC2A 78                db      078h,000h    
     DC2B 00
6149 DC2C 79                db      079h,037h    
     DC2D 37
6150 DC2E 7A                db      07ah,056h    
     DC2F 56
6151 DC30 7B                db      07bh,000h    
     DC31 00
6152 DC32 7C                db      07ch,010h    
     DC33 10
6153 DC34 7D                db      07dh,0a9h    
     DC35 FFFFFFA9
6154 DC36 7E                db      07eh,0bfh    
     DC37 FFFFFFBF
6155 DC38 7F                db      07fh,000h    
     DC39 00
6156 DC3A 00                db      000h,040h    
     DC3B 40
6157 DC3C 08                db      008h,07fh    
     DC3D 7F
6158 DC3E 09                db      009h,0ffh    
     DC3F FFFFFFFF
6159 DC40 0A                db      00ah,0ffh    
     DC41 FFFFFFFF
6160 DC42 0B                db      00bh,000h    
     DC43 00
6161 DC44 0C                db      00ch,000h    
     DC45 00
6162 DC46 0D                db      00dh,000h    
     DC47 00
6163 DC48 0E                db      00eh,000h    
     DC49 00
6164 DC4A 0F                db      00fh,000h    
     DC4B 00
6165 DC4C 10                db      010h,002h    
     DC4D 02
6166 DC4E 11                db      011h,000h    
     DC4F 00
6167 DC50 12                db      012h,000h    
     DC51 00
6168 DC52 13                db      013h,000h    
     DC53 00
6169 DC54 14                db      014h,0e0h    
     DC55 FFFFFFE0
6170 DC56 15                db      015h,000h    
     DC57 00
6171 DC58 16                db      016h,000h    
     DC59 00
6172 DC5A 17                db      017h,000h    
     DC5B 00
6173 DC5C 18                db      018h,00ch    
     DC5D 0C
6174 DC5E 19                db      019h,09eh    
     DC5F FFFFFF9E
6175 DC60 1A                db      01ah,080h    
     DC61 FFFFFF80
6176 DC62 1B                db      01bh,000h    
     DC63 00
6177 DC64 1C                db      01ch,0c0h    
     DC65 FFFFFFC0
6178 DC66 1D                db      01dh,000h    
     DC67 00
6179 DC68 1E                db      01eh,000h    
     DC69 00
6180 DC6A 1F                db      01fh,000h    
     DC6B 00
6181 DC6C 20                db      020h,04fh    
     DC6D 4F
6182 DC6E 21                db      021h,09fh    
     DC6F FFFFFF9F
6183 DC70 22                db      022h,016h    
     DC71 16
6184 DC72 23                db      023h,000h    
     DC73 00
6185 DC74 24                db      024h,002h    
     DC75 02
6186 DC76 25                db      025h,000h    
     DC77 00
6187 DC78 26                db      026h,000h    
     DC79 00
6188 DC7A 27                db      027h,000h    
     DC7B 00
6189 DC7C 28                db      028h,000h    
     DC7D 00
6190 DC7E 29                db      029h,000h    
     DC7F 00
6191 DC80 2A                db      02ah,000h    
     DC81 00
6192 DC82 2B                db      02bh,000h    
     DC83 00
6193 DC84 2C                db      02ch,000h    
     DC85 00
6194 DC86 2D                db      02dh,000h    
     DC87 00
6195 DC88 2E                db      02eh,000h    
     DC89 00
6196 DC8A 2F                db      02fh,000h    
     DC8B 00
6197 DC8C 30                db      030h,020h    
     DC8D 20
6198 DC8E 31                db      031h,000h    
     DC8F 00
6199 DC90 32                db      032h,000h    
     DC91 00
6200 DC92 33                db      033h,000h    
     DC93 00
6201 DC94 34                db      034h,040h    
     DC95 40
6202 DC96 35                db      035h,000h    
     DC97 00
6203 DC98 36                db      036h,000h    
     DC99 00
6204 DC9A 37                db      037h,000h    
     DC9B 00
6205 DC9C 38                db      038h,0e0h    
     DC9D FFFFFFE0
6206 DC9E 39                db      039h,000h    
     DC9F 00
6207 DCA0 3A                db      03ah,000h    
     DCA1 00
6208 DCA2 3B                db      03bh,000h    
     DCA3 00
6209 DCA4 3C                db      03ch,0c0h    
     DCA5 FFFFFFC0
6210 DCA6 3D                db      03dh,000h    
     DCA7 00
6211 DCA8 3E                db      03eh,000h    
     DCA9 00
6212 DCAA 3F                db      03fh,000h    
     DCAB 00
6213 DCAC 40                db      040h,000h    
     DCAD 00
6214 DCAE 41                db      041h,080h    
     DCAF FFFFFF80
6215 DCB0 42                db      042h,000h    
     DCB1 00
6216 DCB2 43                db      043h,000h    
     DCB3 00
6217 DCB4 44                db      044h,000h    
     DCB5 00
6218 DCB6 45                db      045h,080h    
     DCB7 FFFFFF80
6219 DCB8 46                db      046h,000h    
     DCB9 00
6220 DCBA 47                db      047h,000h    
     DCBB 00
6221 DCBC 48                db      048h,000h    
     DCBD 00
6222 DCBE 49                db      049h,080h    
     DCBF FFFFFF80
6223 DCC0 4A                db      04ah,000h    
     DCC1 00
6224 DCC2 4B                db      04bh,000h    
     DCC3 00
6225 DCC4 4C                db      04ch,080h    
     DCC5 FFFFFF80
6226 DCC6 4D                db      04dh,000h    
     DCC7 00
6227 DCC8 4E                db      04eh,000h    
     DCC9 00
6228 DCCA 4F                db      04fh,000h    
     DCCB 00
6229 DCCC 50                db      050h,07fh    
     DCCD 7F
6230 DCCE 51                db      051h,0ffh    
     DCCF FFFFFFFF
6231 DCD0 52                db      052h,0ffh    
     DCD1 FFFFFFFF
6232 DCD2 53                db      053h,000h    
     DCD3 00
6233 DCD4 54                db      054h,000h    
     DCD5 00
6234 DCD6 55                db      055h,080h    
     DCD7 FFFFFF80
6235 DCD8 56                db      056h,000h    
     DCD9 00
6236 DCDA 57                db      057h,000h    
     DCDB 00
6237 DCDC 58                db      058h,000h    
     DCDD 00
6238 DCDE 59                db      059h,080h    
     DCDF FFFFFF80
6239 DCE0 5A                db      05ah,000h    
     DCE1 00
6240 DCE2 5B                db      05bh,000h    
     DCE3 00
6241 DCE4 5C                db      05ch,000h    
     DCE5 00
6242 DCE6 5D                db      05dh,080h    
     DCE7 FFFFFF80
6243 DCE8 5E                db      05eh,000h    
     DCE9 00
6244 DCEA 5F                db      05fh,000h    
     DCEB 00
6245 DCEC 60                db      060h,0c0h    
     DCED FFFFFFC0
6246 DCEE 61                db      061h,000h    
     DCEF 00
6247 DCF0 62                db      062h,000h    
     DCF1 00
6248 DCF2 63                db      063h,000h    
     DCF3 00
6249 DCF4 64                db      064h,07fh    
     DCF5 7F
6250 DCF6 65                db      065h,07fh    
     DCF7 7F
6251 DCF8 66                db      066h,0d2h    
     DCF9 FFFFFFD2
6252 DCFA 67                db      067h,000h    
     DCFB 00
6253 DCFC 68                db      068h,0c0h    
     DCFD FFFFFFC0
6254 DCFE 69                db      069h,040h    
     DCFF 40
6255 DD00 6A                db      06ah,017h    
     DD01 17
6256 DD02 6B                db      06bh,000h    
     DD03 00
6257 DD04 6C                db      06ch,000h    
     DD05 00
6258 DD06 6D                db      06dh,000h    
     DD07 00
6259 DD08 6E                db      06eh,000h    
     DD09 00
6260 DD0A 6F                db      06fh,000h    
     DD0B 00
6261 DD0C 70                db      070h,03fh    
     DD0D 3F
6262 DD0E 71                db      071h,07fh    
     DD0F 7F
6263 DD10 72                db      072h,0d2h    
     DD11 FFFFFFD2
6264 DD12 73                db      073h,000h    
     DD13 00
6265 DD14 74                db      074h,000h    
     DD15 00
6266 DD16 75                db      075h,000h    
     DD17 00
6267 DD18 76                db      076h,000h    
     DD19 00
6268 DD1A 77                db      077h,000h    
     DD1B 00
6269 DD1C 78                db      078h,07fh    
     DD1D 7F
6270 DD1E 79                db      079h,0ffh    
     DD1F FFFFFFFF
6271 DD20 7A                db      07ah,0ffh    
     DD21 FFFFFFFF
6272 DD22 7B                db      07bh,000h    
     DD23 00
6273 DD24 7C                db      07ch,081h    
     DD25 FFFFFF81
6274 DD26 7D                db      07dh,009h    
     DD27 09
6275 DD28 7E                db      07eh,04dh    
     DD29 4D
6276 DD2A 7F                db      07fh,000h    
     DD2B 00
6277 DD2C 00                db      000h,041h    
     DD2D 41
6278 DD2E 08                db      008h,07eh    
     DD2F 7E
6279 DD30 09                db      009h,003h    
     DD31 03
6280 DD32 0A                db      00ah,0b0h    
     DD33 FFFFFFB0
6281 DD34 0B                db      00bh,000h    
     DD35 00
6282 DD36 0C                db      00ch,07fh    
     DD37 7F
6283 DD38 0D                db      00dh,0b4h    
     DD39 FFFFFFB4
6284 DD3A 0E                db      00eh,093h    
     DD3B FFFFFF93
6285 DD3C 0F                db      00fh,000h    
     DD3D 00
6286 DD3E 10                db      010h,080h    
     DD3F FFFFFF80
6287 DD40 11                db      011h,080h    
     DD41 FFFFFF80
6288 DD42 12                db      012h,06eh    
     DD43 6E
6289 DD44 13                db      013h,000h    
     DD45 00
6290 DD46 14                db      014h,07fh    
     DD47 7F
6291 DD48 15                db      015h,0ffh    
     DD49 FFFFFFFF
6292 DD4A 16                db      016h,0ffh    
     DD4B FFFFFFFF
6293 DD4C 17                db      017h,000h    
     DD4D 00
6294 DD4E 18                db      018h,080h    
     DD4F FFFFFF80
6295 DD50 19                db      019h,0abh    
     DD51 FFFFFFAB
6296 DD52 1A                db      01ah,040h    
     DD53 40
6297 DD54 1B                db      01bh,000h    
     DD55 00
6298 DD56 1C                db      01ch,07eh    
     DD57 7E
6299 DD58 1D                db      01dh,0ach    
     DD59 FFFFFFAC
6300 DD5A 1E                db      01eh,03fh    
     DD5B 3F
6301 DD5C 1F                db      01fh,000h    
     DD5D 00
6302 DD5E 20                db      020h,07fh    
     DD5F 7F
6303 DD60 21                db      021h,0d3h    
     DD61 FFFFFFD3
6304 DD62 22                db      022h,0c9h    
     DD63 FFFFFFC9
6305 DD64 23                db      023h,000h    
     DD65 00
6306 DD66 24                db      024h,080h    
     DD67 FFFFFF80
6307 DD68 25                db      025h,055h    
     DD69 55
6308 DD6A 26                db      026h,0aeh    
     DD6B FFFFFFAE
6309 DD6C 27                db      027h,000h    
     DD6D 00
6310 DD6E 28                db      028h,04ch    
     DD6F 4C
6311 DD70 29                db      029h,0bah    
     DD71 FFFFFFBA
6312 DD72 2A                db      02ah,0fah    
     DD73 FFFFFFFA
6313 DD74 2B                db      02bh,000h    
     DD75 00
6314 DD76 2C                db      02ch,026h    
     DD77 26
6315 DD78 2D                db      02dh,05dh    
     DD79 5D
6316 DD7A 2E                db      02eh,07dh    
     DD7B 7D
6317 DD7C 2F                db      02fh,000h    
     DD7D 00
6318 DD7E 30                db      030h,000h    
     DD7F 00
6319 DD80 31                db      031h,000h    
     DD81 00
6320 DD82 32                db      032h,000h    
     DD83 00
6321 DD84 33                db      033h,000h    
     DD85 00
6322 DD86 34                db      034h,0f3h    
     DD87 FFFFFFF3
6323 DD88 35                db      035h,045h    
     DD89 45
6324 DD8A 36                db      036h,005h    
     DD8B 05
6325 DD8C 37                db      037h,000h    
     DD8D 00
6326 DD8E 38                db      038h,000h    
     DD8F 00
6327 DD90 39                db      039h,000h    
     DD91 00
6328 DD92 3A                db      03ah,000h    
     DD93 00
6329 DD94 3B                db      03bh,000h    
     DD95 00
6330 DD96 3C                db      03ch,071h    
     DD97 71
6331 DD98 3D                db      03dh,05ch    
     DD99 5C
6332 DD9A 3E                db      03eh,0b4h    
     DD9B FFFFFFB4
6333 DD9C 3F                db      03fh,000h    
     DD9D 00
6334 DD9E 40                db      040h,0aeh    
     DD9F FFFFFFAE
6335 DDA0 41                db      041h,01dh    
     DDA1 1D
6336 DDA2 42                db      042h,01dh    
     DDA3 1D
6337 DDA4 43                db      043h,000h    
     DDA5 00
6338 DDA6 44                db      044h,04bh    
     DDA7 4B
6339 DDA8 45                db      045h,0bfh    
     DDA9 FFFFFFBF
6340 DDAA 46                db      046h,003h    
     DDAB 03
6341 DDAC 47                db      047h,000h    
     DDAD 00
6342 DDAE 48                db      048h,051h    
     DDAF 51
6343 DDB0 49                db      049h,0e2h    
     DDB1 FFFFFFE2
6344 DDB2 4A                db      04ah,0e3h    
     DDB3 FFFFFFE3
6345 DDB4 4B                db      04bh,000h    
     DDB5 00
6346 DDB6 4C                db      04ch,0c2h    
     DDB7 FFFFFFC2
6347 DDB8 4D                db      04dh,0e4h    
     DDB9 FFFFFFE4
6348 DDBA 4E                db      04eh,048h    
     DDBB 48
6349 DDBC 4F                db      04fh,000h    
     DDBD 00
6350 DDBE 50                db      050h,07fh    
     DDBF 7F
6351 DDC0 51                db      051h,0ffh    
     DDC1 FFFFFFFF
6352 DDC2 52                db      052h,0ffh    
     DDC3 FFFFFFFF
6353 DDC4 53                db      053h,000h    
     DDC5 00
6354 DDC6 54                db      054h,082h    
     DDC7 FFFFFF82
6355 DDC8 55                db      055h,096h    
     DDC9 FFFFFF96
6356 DDCA 56                db      056h,040h    
     DDCB 40
6357 DDCC 57                db      057h,000h    
     DDCD 00
6358 DDCE 58                db      058h,07bh    
     DDCF 7B
6359 DDD0 59                db      059h,004h    
     DDD1 04
6360 DDD2 5A                db      05ah,010h    
     DDD3 10
6361 DDD4 5B                db      05bh,000h    
     DDD5 00
6362 DDD6 5C                db      05ch,07dh    
     DDD7 7D
6363 DDD8 5D                db      05dh,0d8h    
     DDD9 FFFFFFD8
6364 DDDA 5E                db      05eh,00eh    
     DDDB 0E
6365 DDDC 5F                db      05fh,000h    
     DDDD 00
6366 DDDE 60                db      060h,084h    
     DDDF FFFFFF84
6367 DDE0 61                db      061h,01fh    
     DDE1 1F
6368 DDE2 62                db      062h,02ah    
     DDE3 2A
6369 DDE4 63                db      063h,000h    
     DDE5 00
6370 DDE6 64                db      064h,07eh    
     DDE7 7E
6371 DDE8 65                db      065h,0b9h    
     DDE9 FFFFFFB9
6372 DDEA 66                db      066h,0beh    
     DDEB FFFFFFBE
6373 DDEC 67                db      067h,000h    
     DDED 00
6374 DDEE 68                db      068h,082h    
     DDEF FFFFFF82
6375 DDF0 69                db      069h,0fah    
     DDF1 FFFFFFFA
6376 DDF2 6A                db      06ah,09ah    
     DDF3 FFFFFF9A
6377 DDF4 6B                db      06bh,000h    
     DDF5 00
6378 DDF6 6C                db      06ch,07bh    
     DDF7 7B
6379 DDF8 6D                db      06dh,073h    
     DDF9 73
6380 DDFA 6E                db      06eh,059h    
     DDFB 59
6381 DDFC 6F                db      06fh,000h    
     DDFD 00
6382 DDFE 70                db      070h,07dh    
     DDFF 7D
6383 DE00 71                db      071h,005h    
     DE01 05
6384 DE02 72                db      072h,066h    
     DE03 66
6385 DE04 73                db      073h,000h    
     DE05 00
6386 DE06 74                db      074h,085h    
     DE07 FFFFFF85
6387 DE08 75                db      075h,0d2h    
     DE09 FFFFFFD2
6388 DE0A 76                db      076h,0e8h    
     DE0B FFFFFFE8
6389 DE0C 77                db      077h,000h    
     DE0D 00
6390 DE0E 78                db      078h,07fh    
     DE0F 7F
6391 DE10 79                db      079h,0ffh    
     DE11 FFFFFFFF
6392 DE12 7A                db      07ah,0ffh    
     DE13 FFFFFFFF
6393 DE14 7B                db      07bh,000h    
     DE15 00
6394 DE16 7C                db      07ch,000h    
     DE17 00
6395 DE18 7D                db      07dh,000h    
     DE19 00
6396 DE1A 7E                db      07eh,000h    
     DE1B 00
6397 DE1C 7F                db      07fh,000h    
     DE1D 00
6398 DE1E 00                db      000h,042h    
     DE1F 42
6399 DE20 08                db      008h,000h    
     DE21 00
6400 DE22 09                db      009h,000h    
     DE23 00
6401 DE24 0A                db      00ah,000h    
     DE25 00
6402 DE26 0B                db      00bh,000h    
     DE27 00
6403 DE28 0C                db      00ch,000h    
     DE29 00
6404 DE2A 0D                db      00dh,000h    
     DE2B 00
6405 DE2C 0E                db      00eh,000h    
     DE2D 00
6406 DE2E 0F                db      00fh,000h    
     DE2F 00
6407 DE30 10                db      010h,000h    
     DE31 00
6408 DE32 11                db      011h,000h    
     DE33 00
6409 DE34 12                db      012h,000h    
     DE35 00
6410 DE36 13                db      013h,000h    
     DE37 00
6411 DE38 14                db      014h,07fh    
     DE39 7F
6412 DE3A 15                db      015h,0ffh    
     DE3B FFFFFFFF
6413 DE3C 16                db      016h,0ffh    
     DE3D FFFFFFFF
6414 DE3E 17                db      017h,000h    
     DE3F 00
6415 DE40 18                db      018h,093h    
     DE41 FFFFFF93
6416 DE42 19                db      019h,0a2h    
     DE43 FFFFFFA2
6417 DE44 1A                db      01ah,0cch    
     DE45 FFFFFFCC
6418 DE46 1B                db      01bh,000h    
     DE47 00
6419 DE48 1C                db      01ch,05ah    
     DE49 5A
6420 DE4A 1D                db      01dh,024h    
     DE4B 24
6421 DE4C 1E                db      01eh,025h    
     DE4D 25
6422 DE4E 1F                db      01fh,000h    
     DE4F 00
6423 DE50 20                db      020h,070h    
     DE51 70
6424 DE52 21                db      021h,060h    
     DE53 60
6425 DE54 22                db      022h,051h    
     DE55 51
6426 DE56 23                db      023h,000h    
     DE57 00
6427 DE58 24                db      024h,09dh    
     DE59 FFFFFF9D
6428 DE5A 25                db      025h,0c8h    
     DE5B FFFFFFC8
6429 DE5C 26                db      026h,03bh    
     DE5D 3B
6430 DE5E 27                db      027h,000h    
     DE5F 00
6431 DE60 28                db      028h,077h    
     DE61 77
6432 DE62 29                db      029h,0cch    
     DE63 FFFFFFCC
6433 DE64 2A                db      02ah,0e2h    
     DE65 FFFFFFE2
6434 DE66 2B                db      02bh,000h    
     DE67 00
6435 DE68 2C                db      02ch,0e7h    
     DE69 FFFFFFE7
6436 DE6A 2D                db      02dh,043h    
     DE6B 43
6437 DE6C 2E                db      02eh,08fh    
     DE6D FFFFFF8F
6438 DE6E 2F                db      02fh,000h    
     DE6F 00
6439 DE70 30                db      030h,050h    
     DE71 50
6440 DE72 31                db      031h,00ch    
     DE73 0C
6441 DE74 32                db      032h,04bh    
     DE75 4B
6442 DE76 33                db      033h,000h    
     DE77 00
6443 DE78 34                db      034h,018h    
     DE79 18
6444 DE7A 35                db      035h,0bch    
     DE7B FFFFFFBC
6445 DE7C 36                db      036h,071h    
     DE7D 71
6446 DE7E 37                db      037h,000h    
     DE7F 00
6447 DE80 38                db      038h,0b8h    
     DE81 FFFFFFB8
6448 DE82 39                db      039h,026h    
     DE83 26
6449 DE84 3A                db      03ah,0d2h    
     DE85 FFFFFFD2
6450 DE86 3B                db      03bh,000h    
     DE87 00
6451 DE88 3C                db      03ch,07fh    
     DE89 7F
6452 DE8A 3D                db      03dh,0ffh    
     DE8B FFFFFFFF
6453 DE8C 3E                db      03eh,0ffh    
     DE8D FFFFFFFF
6454 DE8E 3F                db      03fh,000h    
     DE8F 00
6455 DE90 40                db      040h,000h    
     DE91 00
6456 DE92 41                db      041h,000h    
     DE93 00
6457 DE94 42                db      042h,000h    
     DE95 00
6458 DE96 43                db      043h,000h    
     DE97 00
6459 DE98 44                db      044h,000h    
     DE99 00
6460 DE9A 45                db      045h,000h    
     DE9B 00
6461 DE9C 46                db      046h,000h    
     DE9D 00
6462 DE9E 47                db      047h,000h    
     DE9F 00
6463 DEA0 48                db      048h,000h    
     DEA1 00
6464 DEA2 49                db      049h,000h    
     DEA3 00
6465 DEA4 4A                db      04ah,000h    
     DEA5 00
6466 DEA6 4B                db      04bh,000h    
     DEA7 00
6467 DEA8 4C                db      04ch,000h    
     DEA9 00
6468 DEAA 4D                db      04dh,000h    
     DEAB 00
6469 DEAC 4E                db      04eh,000h    
     DEAD 00
6470 DEAE 4F                db      04fh,000h    
     DEAF 00
6471 DEB0 50                db      050h,07fh    
     DEB1 7F
6472 DEB2 51                db      051h,0ffh    
     DEB3 FFFFFFFF
6473 DEB4 52                db      052h,0ffh    
     DEB5 FFFFFFFF
6474 DEB6 53                db      053h,000h    
     DEB7 00
6475 DEB8 54                db      054h,000h    
     DEB9 00
6476 DEBA 55                db      055h,000h    
     DEBB 00
6477 DEBC 56                db      056h,000h    
     DEBD 00
6478 DEBE 57                db      057h,000h    
     DEBF 00
6479 DEC0 58                db      058h,000h    
     DEC1 00
6480 DEC2 59                db      059h,000h    
     DEC3 00
6481 DEC4 5A                db      05ah,000h    
     DEC5 00
6482 DEC6 5B                db      05bh,000h    
     DEC7 00
6483 DEC8 5C                db      05ch,000h    
     DEC9 00
6484 DECA 5D                db      05dh,000h    
     DECB 00
6485 DECC 5E                db      05eh,000h    
     DECD 00
6486 DECE 5F                db      05fh,000h    
     DECF 00
6487 DED0 60                db      060h,000h    
     DED1 00
6488 DED2 61                db      061h,000h    
     DED3 00
6489 DED4 62                db      062h,000h    
     DED5 00
6490 DED6 63                db      063h,000h    
     DED7 00
6491 DED8 64                db      064h,0fdh    
     DED9 FFFFFFFD
6492 DEDA 65                db      065h,0b9h    
     DEDB FFFFFFB9
6493 DEDC 66                db      066h,04bh    
     DEDD 4B
6494 DEDE 67                db      067h,000h    
     DEDF 00
6495 DEE0 68                db      068h,016h    
     DEE1 16
6496 DEE2 69                db      069h,002h    
     DEE3 02
6497 DEE4 6A                db      06ah,051h    
     DEE5 51
6498 DEE6 6B                db      06bh,000h    
     DEE7 00
6499 DEE8 6C                db      06ch,000h    
     DEE9 00
6500 DEEA 6D                db      06dh,006h    
     DEEB 06
6501 DEEC 6E                db      06eh,0d3h    
     DEED FFFFFFD3
6502 DEEE 6F                db      06fh,000h    
     DEEF 00
6503 DEF0 70                db      070h,001h    
     DEF1 01
6504 DEF2 71                db      071h,053h    
     DEF3 53
6505 DEF4 72                db      072h,09ah    
     DEF5 FFFFFF9A
6506 DEF6 73                db      073h,000h    
     DEF7 00
6507 DEF8 74                db      074h,000h    
     DEF9 00
6508 DEFA 75                db      075h,000h    
     DEFB 00
6509 DEFC 76                db      076h,000h    
     DEFD 00
6510 DEFE 77                db      077h,000h    
     DEFF 00
6511 DF00 78                db      078h,0feh    
     DF01 FFFFFFFE
6512 DF02 79                db      079h,0ach    
     DF03 FFFFFFAC
6513 DF04 7A                db      07ah,066h    
     DF05 66
6514 DF06 7B                db      07bh,000h    
     DF07 00
6515 DF08 7C                db      07ch,07eh    
     DF09 7E
6516 DF0A 7D                db      07dh,0aah    
     DF0B FFFFFFAA
6517 DF0C 7E                db      07eh,02ch    
     DF0D 2C
6518 DF0E 7F                db      07fh,000h    
     DF0F 00
6519 DF10 00                db      000h,043h    
     DF11 43
6520 DF12 08                db      008h,082h    
     DF13 FFFFFF82
6521 DF14 09                db      009h,0a7h    
     DF15 FFFFFFA7
6522 DF16 0A                db      00ah,035h    
     DF17 35
6523 DF18 0B                db      00bh,000h    
     DF19 00
6524 DF1A 0C                db      00ch,000h    
     DF1B 00
6525 DF1C 0D                db      00dh,000h    
     DF1D 00
6526 DF1E 0E                db      00eh,000h    
     DF1F 00
6527 DF20 0F                db      00fh,000h    
     DF21 00
6528 DF22 10                db      010h,07fh    
     DF23 7F
6529 DF24 11                db      011h,07ch    
     DF25 7C
6530 DF26 12                db      012h,0c3h    
     DF27 FFFFFFC3
6531 DF28 13                db      013h,000h    
     DF29 00
6532 DF2A 14                db      014h,081h    
     DF2B FFFFFF81
6533 DF2C 15                db      015h,005h    
     DF2D 05
6534 DF2E 16                db      016h,0c6h    
     DF2F FFFFFFC6
6535 DF30 17                db      017h,000h    
     DF31 00
6536 DF32 18                db      018h,03fh    
     DF33 3F
6537 DF34 19                db      019h,0beh    
     DF35 FFFFFFBE
6538 DF36 1A                db      01ah,078h    
     DF37 78
6539 DF38 1B                db      01bh,000h    
     DF39 00
6540 DF3A 1C                db      01ch,0c0h    
     DF3B FFFFFFC0
6541 DF3C 1D                db      01dh,041h    
     DF3D 41
6542 DF3E 1E                db      01eh,088h    
     DF3F FFFFFF88
6543 DF40 1F                db      01fh,000h    
     DF41 00
6544 DF42 20                db      020h,03fh    
     DF43 3F
6545 DF44 21                db      021h,0beh    
     DF45 FFFFFFBE
6546 DF46 22                db      022h,078h    
     DF47 78
6547 DF48 23                db      023h,000h    
     DF49 00
6548 DF4A 24                db      024h,07fh    
     DF4B 7F
6549 DF4C 25                db      025h,075h    
     DF4D 75
6550 DF4E 26                db      026h,018h    
     DF4F 18
6551 DF50 27                db      027h,000h    
     DF51 00
6552 DF52 28                db      028h,081h    
     DF53 FFFFFF81
6553 DF54 29                db      029h,015h    
     DF55 15
6554 DF56 2A                db      02ah,02eh    
     DF57 2E
6555 DF58 2B                db      02bh,000h    
     DF59 00
6556 DF5A 2C                db      02ch,03fh    
     DF5B 3F
6557 DF5C 2D                db      02dh,0bah    
     DF5D FFFFFFBA
6558 DF5E 2E                db      02eh,0a0h    
     DF5F FFFFFFA0
6559 DF60 2F                db      02fh,000h    
     DF61 00
6560 DF62 30                db      030h,0c0h    
     DF63 FFFFFFC0
6561 DF64 31                db      031h,078h    
     DF65 78
6562 DF66 32                db      032h,072h    
     DF67 72
6563 DF68 33                db      033h,000h    
     DF69 00
6564 DF6A 34                db      034h,03fh    
     DF6B 3F
6565 DF6C 35                db      035h,054h    
     DF6D 54
6566 DF6E 36                db      036h,07ch    
     DF6F 7C
6567 DF70 37                db      037h,000h    
     DF71 00
6568 DF72 38                db      038h,07eh    
     DF73 7E
6569 DF74 39                db      039h,0b8h    
     DF75 FFFFFFB8
6570 DF76 3A                db      03ah,072h    
     DF77 72
6571 DF78 3B                db      03bh,000h    
     DF79 00
6572 DF7A 3C                db      03ch,082h    
     DF7B FFFFFF82
6573 DF7C 3D                db      03dh,088h    
     DF7D FFFFFF88
6574 DF7E 3E                db      03eh,0a0h    
     DF7F FFFFFFA0
6575 DF80 3F                db      03fh,000h    
     DF81 00
6576 DF82 40                db      040h,000h    
     DF83 00
6577 DF84 41                db      041h,000h    
     DF85 00
6578 DF86 42                db      042h,0cfh    
     DF87 FFFFFFCF
6579 DF88 43                db      043h,000h    
     DF89 00
6580 DF8A 44                db      044h,000h    
     DF8B 00
6581 DF8C 45                db      045h,000h    
     DF8D 00
6582 DF8E 46                db      046h,0cfh    
     DF8F FFFFFFCF
6583 DF90 47                db      047h,000h    
     DF91 00
6584 DF92 48                db      048h,000h    
     DF93 00
6585 DF94 49                db      049h,000h    
     DF95 00
6586 DF96 4A                db      04ah,0cfh    
     DF97 FFFFFFCF
6587 DF98 4B                db      04bh,000h    
     DF99 00
6588 DF9A 4C                db      04ch,07eh    
     DF9B 7E
6589 DF9C 4D                db      04dh,02ah    
     DF9D 2A
6590 DF9E 4E                db      04eh,05bh    
     DF9F 5B
6591 DFA0 4F                db      04fh,000h    
     DFA1 00
6592 DFA2 50                db      050h,083h    
     DFA3 FFFFFF83
6593 DFA4 51                db      051h,091h    
     DFA5 FFFFFF91
6594 DFA6 52                db      052h,075h    
     DFA7 75
6595 DFA8 53                db      053h,000h    
     DFA9 00
6596 DFAA 54                db      054h,000h    
     DFAB 00
6597 DFAC 55                db      055h,003h    
     DFAD 03
6598 DFAE 56                db      056h,03bh    
     DFAF 3B
6599 DFB0 57                db      057h,000h    
     DFB1 00
6600 DFB2 58                db      058h,000h    
     DFB3 00
6601 DFB4 59                db      059h,003h    
     DFB5 03
6602 DFB6 5A                db      05ah,03bh    
     DFB7 3B
6603 DFB8 5B                db      05bh,000h    
     DFB9 00
6604 DFBA 5C                db      05ch,000h    
     DFBB 00
6605 DFBC 5D                db      05dh,003h    
     DFBD 03
6606 DFBE 5E                db      05eh,03bh    
     DFBF 3B
6607 DFC0 5F                db      05fh,000h    
     DFC1 00
6608 DFC2 60                db      060h,03eh    
     DFC3 3E
6609 DFC4 61                db      061h,037h    
     DFC5 37
6610 DFC6 62                db      062h,02eh    
     DFC7 2E
6611 DFC8 63                db      063h,000h    
     DFC9 00
6612 DFCA 64                db      064h,000h    
     DFCB 00
6613 DFCC 65                db      065h,000h    
     DFCD 00
6614 DFCE 66                db      066h,000h    
     DFCF 00
6615 DFD0 67                db      067h,000h    
     DFD1 00
6616 DFD2 68                db      068h,000h    
     DFD3 00
6617 DFD4 69                db      069h,0e4h    
     DFD5 FFFFFFE4
6618 DFD6 6A                db      06ah,069h    
     DFD7 69
6619 DFD8 6B                db      06bh,000h    
     DFD9 00
6620 DFDA 6C                db      06ch,000h    
     DFDB 00
6621 DFDC 6D                db      06dh,072h    
     DFDD 72
6622 DFDE 6E                db      06eh,034h    
     DFDF 34
6623 DFE0 6F                db      06fh,000h    
     DFE1 00
6624 DFE2 70                db      070h,000h    
     DFE3 00
6625 DFE4 71                db      071h,000h    
     DFE5 00
6626 DFE6 72                db      072h,000h    
     DFE7 00
6627 DFE8 73                db      073h,000h    
     DFE9 00
6628 DFEA 74                db      074h,07fh    
     DFEB 7F
6629 DFEC 75                db      075h,0ffh    
     DFED FFFFFFFF
6630 DFEE 76                db      076h,0ffh    
     DFEF FFFFFFFF
6631 DFF0 77                db      077h,000h    
     DFF1 00
6632 DFF2 78                db      078h,000h    
     DFF3 00
6633 DFF4 79                db      079h,000h    
     DFF5 00
6634 DFF6 7A                db      07ah,000h    
     DFF7 00
6635 DFF8 7B                db      07bh,000h    
     DFF9 00
6636 DFFA 7C                db      07ch,000h    
     DFFB 00
6637 DFFC 7D                db      07dh,000h    
     DFFD 00
6638 DFFE 7E                db      07eh,000h    
     DFFF 00
6639 E000 7F                db      07fh,000h    
     E001 00
6640 E002 00                db      000h,044h    
     E003 44
6641 E004 08                db      008h,000h    
     E005 00
6642 E006 09                db      009h,000h    
     E007 00
6643 E008 0A                db      00ah,000h    
     E009 00
6644 E00A 0B                db      00bh,000h    
     E00B 00
6645 E00C 0C                db      00ch,000h    
     E00D 00
6646 E00E 0D                db      00dh,000h    
     E00F 00
6647 E010 0E                db      00eh,000h    
     E011 00
6648 E012 0F                db      00fh,000h    
     E013 00
6649 E014 10                db      010h,07fh    
     E015 7F
6650 E016 11                db      011h,0ffh    
     E017 FFFFFFFF
6651 E018 12                db      012h,0ffh    
     E019 FFFFFFFF
6652 E01A 13                db      013h,000h    
     E01B 00
6653 E01C 14                db      014h,000h    
     E01D 00
6654 E01E 15                db      015h,000h    
     E01F 00
6655 E020 16                db      016h,000h    
     E021 00
6656 E022 17                db      017h,000h    
     E023 00
6657 E024 18                db      018h,000h    
     E025 00
6658 E026 19                db      019h,000h    
     E027 00
6659 E028 1A                db      01ah,000h    
     E029 00
6660 E02A 1B                db      01bh,000h    
     E02B 00
6661 E02C 1C                db      01ch,000h    
     E02D 00
6662 E02E 1D                db      01dh,000h    
     E02F 00
6663 E030 1E                db      01eh,000h    
     E031 00
6664 E032 1F                db      01fh,000h    
     E033 00
6665 E034 20                db      020h,000h    
     E035 00
6666 E036 21                db      021h,000h    
     E037 00
6667 E038 22                db      022h,000h    
     E039 00
6668 E03A 23                db      023h,000h    
     E03B 00
6669 E03C 24                db      024h,040h    
     E03D 40
6670 E03E 25                db      025h,000h    
     E03F 00
6671 E040 26                db      026h,000h    
     E041 00
6672 E042 27                db      027h,000h    
     E043 00
6673 E044 28                db      028h,07fh    
     E045 7F
6674 E046 29                db      029h,0ffh    
     E047 FFFFFFFF
6675 E048 2A                db      02ah,0ffh    
     E049 FFFFFFFF
6676 E04A 2B                db      02bh,000h    
     E04B 00
6677 E04C 2C                db      02ch,000h    
     E04D 00
6678 E04E 2D                db      02dh,020h    
     E04F 20
6679 E050 2E                db      02eh,0edh    
     E051 FFFFFFED
6680 E052 2F                db      02fh,000h    
     E053 00
6681 E054 30                db      030h,000h    
     E055 00
6682 E056 31                db      031h,020h    
     E057 20
6683 E058 32                db      032h,0edh    
     E059 FFFFFFED
6684 E05A 33                db      033h,000h    
     E05B 00
6685 E05C 34                db      034h,000h    
     E05D 00
6686 E05E 35                db      035h,020h    
     E05F 20
6687 E060 36                db      036h,0edh    
     E061 FFFFFFED
6688 E062 37                db      037h,000h    
     E063 00
6689 E064 38                db      038h,077h    
     E065 77
6690 E066 39                db      039h,0e2h    
     E067 FFFFFFE2
6691 E068 3A                db      03ah,094h    
     E069 FFFFFF94
6692 E06A 3B                db      03bh,000h    
     E06B 00
6693 E06C 3C                db      03ch,08fh    
     E06D FFFFFF8F
6694 E06E 3D                db      03dh,0b7h    
     E06F FFFFFFB7
6695 E070 3E                db      03eh,023h    
     E071 23
6696 E072 3F                db      03fh,000h    
     E073 00
6697 E074 40                db      040h,059h    
     E075 59
6698 E076 41                db      041h,00ch    
     E077 0C
6699 E078 42                db      042h,0dch    
     E079 FFFFFFDC
6700 E07A 43                db      043h,000h    
     E07B 00
6701 E07C 44                db      044h,0a6h    
     E07D FFFFFFA6
6702 E07E 45                db      045h,0f3h    
     E07F FFFFFFF3
6703 E080 46                db      046h,024h    
     E081 24
6704 E082 47                db      047h,000h    
     E083 00
6705 E084 48                db      048h,059h    
     E085 59
6706 E086 49                db      049h,00ch    
     E087 0C
6707 E088 4A                db      04ah,0dch    
     E089 FFFFFFDC
6708 E08A 4B                db      04bh,000h    
     E08B 00
6709 E08C 4C                db      04ch,055h    
     E08D 55
6710 E08E 4D                db      04dh,086h    
     E08F FFFFFF86
6711 E090 4E                db      04eh,0e0h    
     E091 FFFFFFE0
6712 E092 4F                db      04fh,000h    
     E093 00
6713 E094 50                db      050h,0c6h    
     E095 FFFFFFC6
6714 E096 51                db      051h,0dah    
     E097 FFFFFFDA
6715 E098 52                db      052h,050h    
     E099 50
6716 E09A 53                db      053h,000h    
     E09B 00
6717 E09C 54                db      054h,003h    
     E09D 03
6718 E09E 55                db      055h,085h    
     E09F FFFFFF85
6719 E0A0 56                db      056h,0fch    
     E0A1 FFFFFFFC
6720 E0A2 57                db      057h,000h    
     E0A3 00
6721 E0A4 58                db      058h,003h    
     E0A5 03
6722 E0A6 59                db      059h,085h    
     E0A7 FFFFFF85
6723 E0A8 5A                db      05ah,0fch    
     E0A9 FFFFFFFC
6724 E0AA 5B                db      05bh,000h    
     E0AB 00
6725 E0AC 5C                db      05ch,003h    
     E0AD 03
6726 E0AE 5D                db      05dh,085h    
     E0AF FFFFFF85
6727 E0B0 5E                db      05eh,0fch    
     E0B1 FFFFFFFC
6728 E0B2 5F                db      05fh,000h    
     E0B3 00
6729 E0B4 60                db      060h,055h    
     E0B5 55
6730 E0B6 61                db      061h,086h    
     E0B7 FFFFFF86
6731 E0B8 62                db      062h,0e0h    
     E0B9 FFFFFFE0
6732 E0BA 63                db      063h,000h    
     E0BB 00
6733 E0BC 64                db      064h,0c6h    
     E0BD FFFFFFC6
6734 E0BE 65                db      065h,0dah    
     E0BF FFFFFFDA
6735 E0C0 66                db      066h,050h    
     E0C1 50
6736 E0C2 67                db      067h,000h    
     E0C3 00
6737 E0C4 68                db      068h,078h    
     E0C5 78
6738 E0C6 69                db      069h,003h    
     E0C7 03
6739 E0C8 6A                db      06ah,081h    
     E0C9 FFFFFF81
6740 E0CA 6B                db      06bh,000h    
     E0CB 00
6741 E0CC 6C                db      06ch,087h    
     E0CD FFFFFF87
6742 E0CE 6D                db      06dh,0fch    
     E0CF FFFFFFFC
6743 E0D0 6E                db      06eh,07fh    
     E0D1 7F
6744 E0D2 6F                db      06fh,000h    
     E0D3 00
6745 E0D4 70                db      070h,078h    
     E0D5 78
6746 E0D6 71                db      071h,003h    
     E0D7 03
6747 E0D8 72                db      072h,081h    
     E0D9 FFFFFF81
6748 E0DA 73                db      073h,000h    
     E0DB 00
6749 E0DC 74                db      074h,077h    
     E0DD 77
6750 E0DE 75                db      075h,0e2h    
     E0DF FFFFFFE2
6751 E0E0 76                db      076h,094h    
     E0E1 FFFFFF94
6752 E0E2 77                db      077h,000h    
     E0E3 00
6753 E0E4 78                db      078h,08fh    
     E0E5 FFFFFF8F
6754 E0E6 79                db      079h,0b7h    
     E0E7 FFFFFFB7
6755 E0E8 7A                db      07ah,023h    
     E0E9 23
6756 E0EA 7B                db      07bh,000h    
     E0EB 00
6757 E0EC 7C                db      07ch,07fh    
     E0ED 7F
6758 E0EE 7D                db      07dh,0ffh    
     E0EF FFFFFFFF
6759 E0F0 7E                db      07eh,0ffh    
     E0F1 FFFFFFFF
6760 E0F2 7F                db      07fh,000h    
     E0F3 00
6761 E0F4 00                db      000h,045h    
     E0F5 45
6762 E0F6 08                db      008h,000h    
     E0F7 00
6763 E0F8 09                db      009h,000h    
     E0F9 00
6764 E0FA 0A                db      00ah,000h    
     E0FB 00
6765 E0FC 0B                db      00bh,000h    
     E0FD 00
6766 E0FE 0C                db      00ch,000h    
     E0FF 00
6767 E100 0D                db      00dh,000h    
     E101 00
6768 E102 0E                db      00eh,000h    
     E103 00
6769 E104 0F                db      00fh,000h    
     E105 00
6770 E106 10                db      010h,000h    
     E107 00
6771 E108 11                db      011h,080h    
     E109 FFFFFF80
6772 E10A 12                db      012h,000h    
     E10B 00
6773 E10C 13                db      013h,000h    
     E10D 00
6774 E10E 14                db      014h,014h    
     E10F 14
6775 E110 15                db      015h,0c0h    
     E111 FFFFFFC0
6776 E112 16                db      016h,000h    
     E113 00
6777 E114 17                db      017h,000h    
     E115 00
6778 E116 18                db      018h,009h    
     E117 09
6779 E118 19                db      019h,000h    
     E119 00
6780 E11A 1A                db      01ah,000h    
     E11B 00
6781 E11C 1B                db      01bh,000h    
     E11D 00
6782 E11E 1C                db      01ch,020h    
     E11F 20
6783 E120 1D                db      01dh,000h    
     E121 00
6784 E122 1E                db      01eh,000h    
     E123 00
6785 E124 1F                db      01fh,000h    
     E125 00
6786 E126 20                db      020h,080h    
     E127 FFFFFF80
6787 E128 21                db      021h,000h    
     E129 00
6788 E12A 22                db      022h,001h    
     E12B 01
6789 E12C 23                db      023h,000h    
     E12D 00
6790 E12E 24                db      024h,080h    
     E12F FFFFFF80
6791 E130 25                db      025h,000h    
     E131 00
6792 E132 26                db      026h,002h    
     E133 02
6793 E134 27                db      027h,000h    
     E135 00
6794 E136 28                db      028h,07fh    
     E137 7F
6795 E138 29                db      029h,0ffh    
     E139 FFFFFFFF
6796 E13A 2A                db      02ah,0fdh    
     E13B FFFFFFFD
6797 E13C 2B                db      02bh,000h    
     E13D 00
6798 E13E 2C                db      02ch,000h    
     E13F 00
6799 E140 2D                db      02dh,050h    
     E141 50
6800 E142 2E                db      02eh,01eh    
     E143 1E
6801 E144 2F                db      02fh,000h    
     E145 00
6802 E146 30                db      030h,001h    
     E147 01
6803 E148 31                db      031h,064h    
     E149 64
6804 E14A 32                db      032h,097h    
     E14B FFFFFF97
6805 E14C 33                db      033h,000h    
     E14D 00
6806 E14E 34                db      034h,000h    
     E14F 00
6807 E150 35                db      035h,000h    
     E151 00
6808 E152 36                db      036h,000h    
     E153 00
6809 E154 37                db      037h,000h    
     E155 00
6810 E156 38                db      038h,000h    
     E157 00
6811 E158 39                db      039h,000h    
     E159 00
6812 E15A 3A                db      03ah,000h    
     E15B 00
6813 E15C 3B                db      03bh,000h    
     E15D 00
6814 E15E 3C                db      03ch,03fh    
     E15F 3F
6815 E160 3D                db      03dh,0aeh    
     E161 FFFFFFAE
6816 E162 3E                db      03eh,014h    
     E163 14
6817 E164 3F                db      03fh,000h    
     E165 00
6818 E166 40                db      040h,0c0h    
     E167 FFFFFFC0
6819 E168 41                db      041h,000h    
     E169 00
6820 E16A 42                db      042h,000h    
     E16B 00
6821 E16C 43                db      043h,000h    
     E16D 00
6822 E16E 44                db      044h,0c0h    
     E16F FFFFFFC0
6823 E170 45                db      045h,000h    
     E171 00
6824 E172 46                db      046h,000h    
     E173 00
6825 E174 47                db      047h,000h    
     E175 00
6826 E176 48                db      048h,000h    
     E177 00
6827 E178 49                db      049h,0f4h    
     E179 FFFFFFF4
6828 E17A 4A                db      04ah,019h    
     E17B 19
6829 E17C 4B                db      04bh,000h    
     E17D 00
6830 E17E 4C                db      04ch,03ah    
     E17F 3A
6831 E180 4D                db      04dh,000h    
     E181 00
6832 E182 4E                db      04eh,000h    
     E183 00
6833 E184 4F                db      04fh,000h    
     E185 00
6834 E186 50                db      050h,001h    
     E187 01
6835 E188 51                db      051h,040h    
     E189 40
6836 E18A 52                db      052h,000h    
     E18B 00
6837 E18C 53                db      053h,000h    
     E18D 00
6838 E18E 54                db      054h,046h    
     E18F 46
6839 E190 55                db      055h,080h    
     E191 FFFFFF80
6840 E192 56                db      056h,000h    
     E193 00
6841 E194 57                db      057h,000h    
     E195 00
6842 E196 58                db      058h,059h    
     E197 59
6843 E198 59                db      059h,080h    
     E199 FFFFFF80
6844 E19A 5A                db      05ah,000h    
     E19B 00
6845 E19C 5B                db      05bh,000h    
     E19D 00
6846 E19E 5C                db      05ch,000h    
     E19F 00
6847 E1A0 5D                db      05dh,000h    
     E1A1 00
6848 E1A2 5E                db      05eh,000h    
     E1A3 00
6849 E1A4 5F                db      05fh,000h    
     E1A5 00
6850 E1A6 60                db      060h,000h    
     E1A7 00
6851 E1A8 61                db      061h,000h    
     E1A9 00
6852 E1AA 62                db      062h,000h    
     E1AB 00
6853 E1AC 63                db      063h,000h    
     E1AD 00
6854 E1AE 64                db      064h,000h    
     E1AF 00
6855 E1B0 65                db      065h,000h    
     E1B1 00
6856 E1B2 66                db      066h,000h    
     E1B3 00
6857 E1B4 67                db      067h,000h    
     E1B5 00
6858 E1B6 68                db      068h,000h    
     E1B7 00
6859 E1B8 69                db      069h,000h    
     E1B9 00
6860 E1BA 6A                db      06ah,000h    
     E1BB 00
6861 E1BC 6B                db      06bh,000h    
     E1BD 00
6862 E1BE 6C                db      06ch,000h    
     E1BF 00
6863 E1C0 6D                db      06dh,000h    
     E1C1 00
6864 E1C2 6E                db      06eh,000h    
     E1C3 00
6865 E1C4 6F                db      06fh,000h    
     E1C5 00
6866 E1C6 70                db      070h,000h    
     E1C7 00
6867 E1C8 71                db      071h,000h    
     E1C9 00
6868 E1CA 72                db      072h,000h    
     E1CB 00
6869 E1CC 73                db      073h,000h    
     E1CD 00
6870 E1CE 74                db      074h,000h    
     E1CF 00
6871 E1D0 75                db      075h,000h    
     E1D1 00
6872 E1D2 76                db      076h,000h    
     E1D3 00
6873 E1D4 77                db      077h,000h    
     E1D5 00
6874 E1D6 78                db      078h,000h    
     E1D7 00
6875 E1D8 79                db      079h,000h    
     E1D9 00
6876 E1DA 7A                db      07ah,000h    
     E1DB 00
6877 E1DC 7B                db      07bh,000h    
     E1DD 00
6878 E1DE 7C                db      07ch,000h    
     E1DF 00
6879 E1E0 7D                db      07dh,000h    
     E1E1 00
6880 E1E2 7E                db      07eh,000h    
     E1E3 00
6881 E1E4 7F                db      07fh,000h    
     E1E5 00
6882 E1E6 00                db      000h,046h    
     E1E7 46
6883 E1E8 08                db      008h,000h    
     E1E9 00
6884 E1EA 09                db      009h,000h    
     E1EB 00
6885 E1EC 0A                db      00ah,000h    
     E1ED 00
6886 E1EE 0B                db      00bh,000h    
     E1EF 00
6887 E1F0 0C                db      00ch,000h    
     E1F1 00
6888 E1F2 0D                db      00dh,000h    
     E1F3 00
6889 E1F4 0E                db      00eh,000h    
     E1F5 00
6890 E1F6 0F                db      00fh,000h    
     E1F7 00
6891 E1F8 10                db      010h,000h    
     E1F9 00
6892 E1FA 11                db      011h,000h    
     E1FB 00
6893 E1FC 12                db      012h,000h    
     E1FD 00
6894 E1FE 13                db      013h,000h    
     E1FF 00
6895 E200 14                db      014h,000h    
     E201 00
6896 E202 15                db      015h,000h    
     E203 00
6897 E204 16                db      016h,000h    
     E205 00
6898 E206 17                db      017h,000h    
     E207 00
6899 E208 18                db      018h,000h    
     E209 00
6900 E20A 19                db      019h,000h    
     E20B 00
6901 E20C 1A                db      01ah,000h    
     E20D 00
6902 E20E 1B                db      01bh,000h    
     E20F 00
6903 E210 1C                db      01ch,000h    
     E211 00
6904 E212 1D                db      01dh,000h    
     E213 00
6905 E214 1E                db      01eh,000h    
     E215 00
6906 E216 1F                db      01fh,000h    
     E217 00
6907 E218 20                db      020h,000h    
     E219 00
6908 E21A 21                db      021h,000h    
     E21B 00
6909 E21C 22                db      022h,000h    
     E21D 00
6910 E21E 23                db      023h,000h    
     E21F 00
6911 E220 24                db      024h,000h    
     E221 00
6912 E222 25                db      025h,000h    
     E223 00
6913 E224 26                db      026h,000h    
     E225 00
6914 E226 27                db      027h,000h    
     E227 00
6915 E228 28                db      028h,000h    
     E229 00
6916 E22A 29                db      029h,000h    
     E22B 00
6917 E22C 2A                db      02ah,000h    
     E22D 00
6918 E22E 2B                db      02bh,000h    
     E22F 00
6919 E230 2C                db      02ch,000h    
     E231 00
6920 E232 2D                db      02dh,000h    
     E233 00
6921 E234 2E                db      02eh,000h    
     E235 00
6922 E236 2F                db      02fh,000h    
     E237 00
6923 E238 30                db      030h,000h    
     E239 00
6924 E23A 31                db      031h,000h    
     E23B 00
6925 E23C 32                db      032h,000h    
     E23D 00
6926 E23E 33                db      033h,000h    
     E23F 00
6927 E240 34                db      034h,040h    
     E241 40
6928 E242 35                db      035h,000h    
     E243 00
6929 E244 36                db      036h,000h    
     E245 00
6930 E246 37                db      037h,000h    
     E247 00
6931 E248 38                db      038h,000h    
     E249 00
6932 E24A 39                db      039h,004h    
     E24B 04
6933 E24C 3A                db      03ah,000h    
     E24D 00
6934 E24E 3B                db      03bh,000h    
     E24F 00
6935 E250 3C                db      03ch,000h    
     E251 00
6936 E252 3D                db      03dh,000h    
     E253 00
6937 E254 3E                db      03eh,000h    
     E255 00
6938 E256 3F                db      03fh,000h    
     E257 00
6939 E258 40                db      040h,000h    
     E259 00
6940 E25A 41                db      041h,000h    
     E25B 00
6941 E25C 42                db      042h,000h    
     E25D 00
6942 E25E 43                db      043h,000h    
     E25F 00
6943 E260 44                db      044h,040h    
     E261 40
6944 E262 45                db      045h,000h    
     E263 00
6945 E264 46                db      046h,000h    
     E265 00
6946 E266 47                db      047h,000h    
     E267 00
6947 E268 00                db      000h,098h    
     E269 FFFFFF98
6948 E26A 08                db      008h,0c0h    
     E26B FFFFFFC0
6949 E26C 09                db      009h,002h    
     E26D 02
6950 E26E 0A                db      00ah,001h    
     E26F 01
6951 E270 0B                db      00bh,000h    
     E271 00
6952 E272 0C                db      00ch,003h    
     E273 03
6953 E274 0D                db      00dh,0afh    
     E275 FFFFFFAF
6954 E276 0E                db      00eh,0e6h    
     E277 FFFFFFE6
6955 E278 0F                db      00fh,000h    
     E279 00
6956 E27A 10                db      010h,0cfh    
     E27B FFFFFFCF
6957 E27C 11                db      011h,0dfh    
     E27D FFFFFFDF
6958 E27E 12                db      012h,07ch    
     E27F 7C
6959 E280 13                db      013h,0d4h    
     E281 FFFFFFD4
6960 E282 14                db      014h,065h    
     E283 65
6961 E284 15                db      015h,0efh    
     E285 FFFFFFEF
6962 E286 16                db      016h,090h    
     E287 FFFFFF90
6963 E288 17                db      017h,0c5h    
     E289 FFFFFFC5
6964 E28A 18                db      018h,000h    
     E28B 00
6965 E28C 19                db      019h,00fh    
     E28D 0F
6966 E28E 1A                db      01ah,0e6h    
     E28F FFFFFFE6
6967 E290 1B                db      01bh,000h    
     E291 00
6968 E292 1C                db      01ch,000h    
     E293 00
6969 E294 1D                db      01dh,002h    
     E295 02
6970 E296 1E                db      01eh,0d9h    
     E297 FFFFFFD9
6971 E298 1F                db      01fh,0fbh    
     E299 FFFFFFFB
6972 E29A 20                db      020h,099h    
     E29B FFFFFF99
6973 E29C 21                db      021h,000h    
     E29D 00
6974 E29E 22                db      022h,002h    
     E29F 02
6975 E2A0 23                db      023h,020h    
     E2A1 20
6976 E2A2 24                db      024h,03fh    
     E2A3 3F
6977 E2A4 25                db      025h,0ach    
     E2A5 FFFFFFAC
6978 E2A6 26                db      026h,0d5h    
     E2A7 FFFFFFD5
6979 E2A8 27                db      027h,048h    
     E2A9 48
6980 E2AA 28                db      028h,0bch    
     E2AB FFFFFFBC
6981 E2AC 29                db      029h,04bh    
     E2AD 4B
6982 E2AE 2A                db      02ah,0fbh    
     E2AF FFFFFFFB
6983 E2B0 2B                db      02bh,0fbh    
     E2B1 FFFFFFFB
6984 E2B2 2C                db      02ch,0d6h    
     E2B3 FFFFFFD6
6985 E2B4 2D                db      02dh,062h    
     E2B5 62
6986 E2B6 2E                db      02eh,01ah    
     E2B7 1A
6987 E2B8 2F                db      02fh,05ch    
     E2B9 5C
6988 E2BA 30                db      030h,0e8h    
     E2BB FFFFFFE8
6989 E2BC 31                db      031h,002h    
     E2BD 02
6990 E2BE 32                db      032h,000h    
     E2BF 00
6991 E2C0 33                db      033h,000h    
     E2C1 00
6992 E2C2 34                db      034h,002h    
     E2C3 02
6993 E2C4 35                db      035h,070h    
     E2C5 70
6994 E2C6 36                db      036h,000h    
     E2C7 00
6995 E2C8 37                db      037h,0dch    
     E2C9 FFFFFFDC
6996 E2CA 38                db      038h,0cfh    
     E2CB FFFFFFCF
6997 E2CC 39                db      039h,0cdh    
     E2CD FFFFFFCD
6998 E2CE 3A                db      03ah,0d0h    
     E2CF FFFFFFD0
6999 E2D0 3B                db      03bh,002h    
     E2D1 02
7000 E2D2 3C                db      03ch,008h    
     E2D3 08
7001 E2D4 3D                db      03dh,000h    
     E2D5 00
7002 E2D6 3E                db      03eh,0f0h    
     E2D7 FFFFFFF0
7003 E2D8 3F                db      03fh,069h    
     E2D9 69
7004 E2DA 40                db      040h,0a6h    
     E2DB FFFFFFA6
7005 E2DC 41                db      041h,000h    
     E2DD 00
7006 E2DE 42                db      042h,0e5h    
     E2DF FFFFFFE5
7007 E2E0 43                db      043h,000h    
     E2E1 00
7008 E2E2 44                db      044h,03fh    
     E2E3 3F
7009 E2E4 45                db      045h,0c4h    
     E2E5 FFFFFFC4
7010 E2E6 46                db      046h,002h    
     E2E7 02
7011 E2E8 47                db      047h,0fbh    
     E2E9 FFFFFFFB
7012 E2EA 48                db      048h,0cdh    
     E2EB FFFFFFCD
7013 E2EC 49                db      049h,043h    
     E2ED 43
7014 E2EE 4A                db      04ah,002h    
     E2EF 02
7015 E2F0 4B                db      04bh,074h    
     E2F1 74
7016 E2F2 4C                db      04ch,0beh    
     E2F3 FFFFFFBE
7017 E2F4 4D                db      04dh,006h    
     E2F5 06
7018 E2F6 4E                db      04eh,000h    
     E2F7 00
7019 E2F8 4F                db      04fh,0e3h    
     E2F9 FFFFFFE3
7020 E2FA 50                db      050h,0d0h    
     E2FB FFFFFFD0
7021 E2FC 51                db      051h,000h    
     E2FD 00
7022 E2FE 52                db      052h,0ffh    
     E2FF FFFFFFFF
7023 E300 53                db      053h,0d3h    
     E301 FFFFFFD3
7024 E302 54                db      054h,0c7h    
     E303 FFFFFFC7
7025 E304 55                db      055h,092h    
     E305 FFFFFF92
7026 E306 56                db      056h,0bch    
     E307 FFFFFFBC
7027 E308 57                db      057h,002h    
     E309 02
7028 E30A 58                db      058h,00fh    
     E30B 0F
7029 E30C 59                db      059h,0a9h    
     E30D FFFFFFA9
7030 E30E 5A                db      05ah,000h    
     E30F 00
7031 E310 5B                db      05bh,0cfh    
     E311 FFFFFFCF
7032 E312 5C                db      05ch,06ch    
     E313 6C
7033 E314 5D                db      05dh,03fh    
     E315 3F
7034 E316 5E                db      05eh,0cah    
     E317 FFFFFFCA
7035 E318 5F                db      05fh,0e8h    
     E319 FFFFFFE8
7036 E31A 60                db      060h,078h    
     E31B 78
7037 E31C 61                db      061h,0d4h    
     E31D FFFFFFD4
7038 E31E 62                db      062h,061h    
     E31F 61
7039 E320 63                db      063h,0e2h    
     E321 FFFFFFE2
7040 E322 64                db      064h,000h    
     E323 00
7041 E324 65                db      065h,0c1h    
     E325 FFFFFFC1
7042 E326 66                db      066h,000h    
     E327 00
7043 E328 67                db      067h,067h    
     E329 67
7044 E32A 68                db      068h,0e7h    
     E32B FFFFFFE7
7045 E32C 69                db      069h,0d7h    
     E32D FFFFFFD7
7046 E32E 6A                db      06ah,087h    
     E32F FFFFFF87
7047 E330 6B                db      06bh,000h    
     E331 00
7048 E332 6C                db      06ch,0b0h    
     E333 FFFFFFB0
7049 E334 6D                db      06dh,0fbh    
     E335 FFFFFFFB
7050 E336 6E                db      06eh,094h    
     E337 FFFFFF94
7051 E338 6F                db      06fh,0bfh    
     E339 FFFFFFBF
7052 E33A 70                db      070h,021h    
     E33B 21
7053 E33C 71                db      071h,08ah    
     E33D FFFFFF8A
7054 E33E 72                db      072h,0dfh    
     E33F FFFFFFDF
7055 E340 73                db      073h,08ah    
     E341 FFFFFF8A
7056 E342 74                db      074h,001h    
     E343 01
7057 E344 75                db      075h,09bh    
     E345 FFFFFF9B
7058 E346 76                db      076h,0c7h    
     E347 FFFFFFC7
7059 E348 77                db      077h,084h    
     E349 FFFFFF84
7060 E34A 78                db      078h,06dh    
     E34B 6D
7061 E34C 79                db      079h,000h    
     E34D 00
7062 E34E 7A                db      07ah,002h    
     E34F 02
7063 E350 7B                db      07bh,000h    
     E351 00
7064 E352 7C                db      07ch,0ach    
     E353 FFFFFFAC
7065 E354 7D                db      07dh,0eah    
     E355 FFFFFFEA
7066 E356 7E                db      07eh,06fh    
     E357 6F
7067 E358 7F                db      07fh,000h    
     E359 00
7068 E35A 00                db      000h,099h    
     E35B FFFFFF99
7069 E35C 08                db      008h,0cdh    
     E35D FFFFFFCD
7070 E35E 09                db      009h,0bbh    
     E35F FFFFFFBB
7071 E360 0A                db      00ah,090h    
     E361 FFFFFF90
7072 E362 0B                db      00bh,03fh    
     E363 3F
7073 E364 0C                db      00ch,0dfh    
     E365 FFFFFFDF
7074 E366 0D                db      00dh,0fbh    
     E367 FFFFFFFB
7075 E368 0E                db      00eh,043h    
     E369 43
7076 E36A 0F                db      00fh,000h    
     E36B 00
7077 E36C 10                db      010h,0efh    
     E36D FFFFFFEF
7078 E36E 11                db      011h,001h    
     E36F 01
7079 E370 12                db      012h,003h    
     E371 03
7080 E372 13                db      013h,0afh    
     E373 FFFFFFAF
7081 E374 14                db      014h,0dfh    
     E375 FFFFFFDF
7082 E376 15                db      015h,0d6h    
     E377 FFFFFFD6
7083 E378 16                db      016h,0cfh    
     E379 FFFFFFCF
7084 E37A 17                db      017h,000h    
     E37B 00
7085 E37C 18                db      018h,074h    
     E37D 74
7086 E37E 19                db      019h,086h    
     E37F FFFFFF86
7087 E380 1A                db      01ah,000h    
     E381 00
7088 E382 1B                db      01bh,000h    
     E383 00
7089 E384 1C                db      01ch,020h    
     E385 20
7090 E386 1D                db      01dh,0ebh    
     E387 FFFFFFEB
7091 E388 1E                db      01eh,0d2h    
     E389 FFFFFFD2
7092 E38A 1F                db      01fh,087h    
     E38B FFFFFF87
7093 E38C 20                db      020h,002h    
     E38D 02
7094 E38E 21                db      021h,0d4h    
     E38F FFFFFFD4
7095 E390 22                db      022h,0eah    
     E391 FFFFFFEA
7096 E392 23                db      023h,021h    
     E393 21
7097 E394 24                db      024h,0bah    
     E395 FFFFFFBA
7098 E396 25                db      025h,0fbh    
     E397 FFFFFFFB
7099 E398 26                db      026h,01bh    
     E399 1B
7100 E39A 27                db      027h,0abh    
     E39B FFFFFFAB
7101 E39C 28                db      028h,005h    
     E39D 05
7102 E39E 29                db      029h,0e6h    
     E39F FFFFFFE6
7103 E3A0 2A                db      02ah,00fh    
     E3A1 0F
7104 E3A2 2B                db      02bh,0ach    
     E3A3 FFFFFFAC
7105 E3A4 2C                db      02ch,0b0h    
     E3A5 FFFFFFB0
7106 E3A6 2D                db      02dh,0bbh    
     E3A7 FFFFFFBB
7107 E3A8 2E                db      02eh,002h    
     E3A9 02
7108 E3AA 2F                db      02fh,0d1h    
     E3AB FFFFFFD1
7109 E3AC 30                db      030h,05fh    
     E3AD 5F
7110 E3AE 31                db      031h,0e9h    
     E3AF FFFFFFE9
7111 E3B0 32                db      032h,074h    
     E3B1 74
7112 E3B2 33                db      033h,0c3h    
     E3B3 FFFFFFC3
7113 E3B4 34                db      034h,000h    
     E3B5 00
7114 E3B6 35                db      035h,001h    
     E3B7 01
7115 E3B8 36                db      036h,0f1h    
     E3B9 FFFFFFF1
7116 E3BA 37                db      037h,0d5h    
     E3BB FFFFFFD5
7117 E3BC 38                db      038h,0ebh    
     E3BD FFFFFFEB
7118 E3BE 39                db      039h,001h    
     E3BF 01
7119 E3C0 3A                db      03ah,080h    
     E3C1 FFFFFF80
7120 E3C2 3B                db      03bh,000h    
     E3C3 00
7121 E3C4 3C                db      03ch,0e5h    
     E3C5 FFFFFFE5
7122 E3C6 3D                db      03dh,0e1h    
     E3C7 FFFFFFE1
7123 E3C8 3E                db      03eh,074h    
     E3C9 74
7124 E3CA 3F                db      03fh,003h    
     E3CB 03
7125 E3CC 40                db      040h,002h    
     E3CD 02
7126 E3CE 41                db      041h,000h    
     E3CF 00
7127 E3D0 42                db      042h,0a2h    
     E3D1 FFFFFFA2
7128 E3D2 43                db      043h,0cfh    
     E3D3 FFFFFFCF
7129 E3D4 44                db      044h,002h    
     E3D5 02
7130 E3D6 45                db      045h,0fbh    
     E3D7 FFFFFFFB
7131 E3D8 46                db      046h,0b5h    
     E3D9 FFFFFFB5
7132 E3DA 47                db      047h,0c0h    
     E3DB FFFFFFC0
7133 E3DC 48                db      048h,0deh    
     E3DD FFFFFFDE
7134 E3DE 49                db      049h,000h    
     E3DF 00
7135 E3E0 4A                db      04ah,0c4h    
     E3E1 FFFFFFC4
7136 E3E2 4B                db      04bh,052h    
     E3E3 52
7137 E3E4 4C                db      04ch,0fbh    
     E3E5 FFFFFFFB
7138 E3E6 4D                db      04dh,000h    
     E3E7 00
7139 E3E8 4E                db      04eh,0fbh    
     E3E9 FFFFFFFB
7140 E3EA 4F                db      04fh,08ah    
     E3EB FFFFFF8A
7141 E3EC 50                db      050h,001h    
     E3ED 01
7142 E3EE 51                db      051h,09bh    
     E3EF FFFFFF9B
7143 E3F0 52                db      052h,0c7h    
     E3F1 FFFFFFC7
7144 E3F2 53                db      053h,084h    
     E3F3 FFFFFF84
7145 E3F4 54                db      054h,06dh    
     E3F5 6D
7146 E3F6 55                db      055h,000h    
     E3F7 00
7147 E3F8 56                db      056h,002h    
     E3F9 02
7148 E3FA 57                db      057h,000h    
     E3FB 00
7149 E3FC 58                db      058h,0ach    
     E3FD FFFFFFAC
7150 E3FE 59                db      059h,0eah    
     E3FF FFFFFFEA
7151 E400 5A                db      05ah,06fh    
     E401 6F
7152 E402 5B                db      05bh,000h    
     E403 00
7153 E404 5C                db      05ch,002h    
     E405 02
7154 E406 5D                db      05dh,0e3h    
     E407 FFFFFFE3
7155 E408 5E                db      05eh,00fh    
     E409 0F
7156 E40A 5F                db      05fh,058h    
     E40B 58
7157 E40C 60                db      060h,000h    
     E40D 00
7158 E40E 61                db      061h,000h    
     E40F 00
7159 E410 62                db      062h,000h    
     E411 00
7160 E412 63                db      063h,0cbh    
     E413 FFFFFFCB
7161 E414 64                db      064h,059h    
     E415 59
7162 E416 65                db      065h,002h    
     E417 02
7163 E418 66                db      066h,070h    
     E419 70
7164 E41A 67                db      067h,03fh    
     E41B 3F
7165 E41C 68                db      068h,07dh    
     E41D 7D
7166 E41E 69                db      069h,00fh    
     E41F 0F
7167 E420 6A                db      06ah,09fh    
     E421 FFFFFF9F
7168 E422 6B                db      06bh,000h    
     E423 00
7169 E424 6C                db      06ch,000h    
     E425 00
7170 E426 6D                db      06dh,001h    
     E427 01
7171 E428 6E                db      06eh,0d0h    
     E429 FFFFFFD0
7172 E42A 6F                db      06fh,002h    
     E42B 02
7173 E42C 70                db      070h,0a7h    
     E42D FFFFFFA7
7174 E42E 71                db      071h,0cfh    
     E42F FFFFFFCF
7175 E430 72                db      072h,051h    
     E431 51
7176 E432 73                db      073h,0bbh    
     E433 FFFFFFBB
7177 E434 74                db      074h,04ch    
     E435 4C
7178 E436 75                db      075h,04bh    
     E437 4B
7179 E438 76                db      076h,000h    
     E439 00
7180 E43A 77                db      077h,0d9h    
     E43B FFFFFFD9
7181 E43C 78                db      078h,077h    
     E43D 77
7182 E43E 79                db      079h,00fh    
     E43F 0F
7183 E440 7A                db      07ah,000h    
     E441 00
7184 E442 7B                db      07bh,0c7h    
     E443 FFFFFFC7
7185 E444 7C                db      07ch,08ah    
     E445 FFFFFF8A
7186 E446 7D                db      07dh,001h    
     E447 01
7187 E448 7E                db      07eh,017h    
     E449 17
7188 E44A 7F                db      07fh,0deh    
     E44B FFFFFFDE
7189 E44C 00                db      000h,09ah    
     E44D FFFFFF9A
7190 E44E 08                db      008h,0b9h    
     E44F FFFFFFB9
7191 E450 09                db      009h,022h    
     E451 22
7192 E452 0A                db      00ah,000h    
     E453 00
7193 E454 0B                db      00bh,0abh    
     E455 FFFFFFAB
7194 E456 0C                db      00ch,002h    
     E457 02
7195 E458 0D                db      00dh,0cch    
     E459 FFFFFFCC
7196 E45A 0E                db      00eh,001h    
     E45B 01
7197 E45C 0F                db      00fh,0afh    
     E45D FFFFFFAF
7198 E45E 10                db      010h,0cch    
     E45F FFFFFFCC
7199 E460 11                db      011h,0c1h    
     E461 FFFFFFC1
7200 E462 12                db      012h,090h    
     E463 FFFFFF90
7201 E464 13                db      013h,0d0h    
     E465 FFFFFFD0
7202 E466 14                db      014h,05fh    
     E467 5F
7203 E468 15                db      015h,0ebh    
     E469 FFFFFFEB
7204 E46A 16                db      016h,08eh    
     E46B FFFFFF8E
7205 E46C 17                db      017h,000h    
     E46D 00
7206 E46E 18                db      018h,000h    
     E46F 00
7207 E470 19                db      019h,001h    
     E471 01
7208 E472 1A                db      01ah,0f3h    
     E473 FFFFFFF3
7209 E474 1B                db      01bh,0d4h    
     E475 FFFFFFD4
7210 E476 1C                db      01ch,000h    
     E477 00
7211 E478 1D                db      01dh,0d5h    
     E479 FFFFFFD5
7212 E47A 1E                db      01eh,000h    
     E47B 00
7213 E47C 1F                db      01fh,0f2h    
     E47D FFFFFFF2
7214 E47E 20                db      020h,096h    
     E47F FFFFFF96
7215 E480 21                db      021h,0bbh    
     E481 FFFFFFBB
7216 E482 22                db      022h,002h    
     E483 02
7217 E484 23                db      023h,01ch    
     E485 1C
7218 E486 24                db      024h,000h    
     E487 00
7219 E488 25                db      025h,058h    
     E489 58
7220 E48A 26                db      026h,0afh    
     E48B FFFFFFAF
7221 E48C 27                db      027h,094h    
     E48D FFFFFF94
7222 E48E 28                db      028h,0b0h    
     E48F FFFFFFB0
7223 E490 29                db      029h,021h    
     E491 21
7224 E492 2A                db      02ah,0c7h    
     E493 FFFFFFC7
7225 E494 2B                db      02bh,000h    
     E495 00
7226 E496 2C                db      02ch,0d3h    
     E497 FFFFFFD3
7227 E498 2D                db      02dh,066h    
     E499 66
7228 E49A 2E                db      02eh,0f1h    
     E49B FFFFFFF1
7229 E49C 2F                db      02fh,01bh    
     E49D 1B
7230 E49E 30                db      030h,0c4h    
     E49F FFFFFFC4
7231 E4A0 31                db      031h,000h    
     E4A1 00
7232 E4A2 32                db      032h,00fh    
     E4A3 0F
7233 E4A4 33                db      033h,0e6h    
     E4A5 FFFFFFE6
7234 E4A6 34                db      034h,0d6h    
     E4A7 FFFFFFD6
7235 E4A8 35                db      035h,000h    
     E4A9 00
7236 E4AA 36                db      036h,0b3h    
     E4AB FFFFFFB3
7237 E4AC 37                db      037h,0d9h    
     E4AD FFFFFFD9
7238 E4AE 38                db      038h,0d6h    
     E4AF FFFFFFD6
7239 E4B0 39                db      039h,01eh    
     E4B1 1E
7240 E4B2 3A                db      03ah,0d0h    
     E4B3 FFFFFFD0
7241 E4B4 3B                db      03bh,00ch    
     E4B5 0C
7242 E4B6 3C                db      03ch,0b8h    
     E4B7 FFFFFFB8
7243 E4B8 3D                db      03dh,04ah    
     E4B9 4A
7244 E4BA 3E                db      03eh,0f2h    
     E4BB FFFFFFF2
7245 E4BC 3F                db      03fh,003h    
     E4BD 03
7246 E4BE 40                db      040h,000h    
     E4BF 00
7247 E4C0 41                db      041h,06ah    
     E4C1 6A
7248 E4C2 42                db      042h,0e7h    
     E4C3 FFFFFFE7
7249 E4C4 43                db      043h,021h    
     E4C5 21
7250 E4C6 44                db      044h,0d6h    
     E4C7 FFFFFFD6
7251 E4C8 45                db      045h,000h    
     E4C9 00
7252 E4CA 46                db      046h,069h    
     E4CB 69
7253 E4CC 47                db      047h,000h    
     E4CD 00
7254 E4CE 48                db      048h,002h    
     E4CF 02
7255 E4D0 49                db      049h,06dh    
     E4D1 6D
7256 E4D2 4A                db      04ah,0b5h    
     E4D3 FFFFFFB5
7257 E4D4 4B                db      04bh,0ddh    
     E4D5 FFFFFFDD
7258 E4D6 4C                db      04ch,0fbh    
     E4D7 FFFFFFFB
7259 E4D8 4D                db      04dh,09ch    
     E4D9 FFFFFF9C
7260 E4DA 4E                db      04eh,0c5h    
     E4DB FFFFFFC5
7261 E4DC 4F                db      04fh,002h    
     E4DD 02
7262 E4DE 50                db      050h,00fh    
     E4DF 0F
7263 E4E0 51                db      051h,04fh    
     E4E1 4F
7264 E4E2 52                db      052h,000h    
     E4E3 00
7265 E4E4 53                db      053h,0d7h    
     E4E5 FFFFFFD7
7266 E4E6 54                db      054h,057h    
     E4E7 57
7267 E4E8 55                db      055h,0beh    
     E4E9 FFFFFFBE
7268 E4EA 56                db      056h,04dh    
     E4EB 4D
7269 E4EC 57                db      057h,0fbh    
     E4ED FFFFFFFB
7270 E4EE 58                db      058h,087h    
     E4EF FFFFFF87
7271 E4F0 59                db      059h,0d9h    
     E4F1 FFFFFFD9
7272 E4F2 5A                db      05ah,078h    
     E4F3 78
7273 E4F4 5B                db      05bh,00fh    
     E4F5 0F
7274 E4F6 5C                db      05ch,092h    
     E4F7 FFFFFF92
7275 E4F8 5D                db      05dh,0cdh    
     E4F9 FFFFFFCD
7276 E4FA 5E                db      05eh,000h    
     E4FB 00
7277 E4FC 5F                db      05fh,001h    
     E4FD 01
7278 E4FE 60                db      060h,018h    
     E4FF 18
7279 E500 61                db      061h,0deh    
     E501 FFFFFFDE
7280 E502 62                db      062h,073h    
     E503 73
7281 E504 63                db      063h,0b5h    
     E505 FFFFFFB5
7282 E506 64                db      064h,0dfh    
     E507 FFFFFFDF
7283 E508 65                db      065h,0e2h    
     E509 FFFFFFE2
7284 E50A 66                db      066h,09eh    
     E50B FFFFFF9E
7285 E50C 67                db      067h,0c7h    
     E50D FFFFFFC7
7286 E50E 68                db      068h,002h    
     E50F 02
7287 E510 69                db      069h,001h    
     E511 01
7288 E512 6A                db      06ah,002h    
     E513 02
7289 E514 6B                db      06bh,0b8h    
     E515 FFFFFFB8
7290 E516 6C                db      06ch,0dbh    
     E517 FFFFFFDB
7291 E518 6D                db      06dh,086h    
     E519 FFFFFF86
7292 E51A 6E                db      06eh,0c1h    
     E51B FFFFFFC1
7293 E51C 6F                db      06fh,021h    
     E51D 21
7294 E51E 70                db      070h,0c1h    
     E51F FFFFFFC1
7295 E520 71                db      071h,0fbh    
     E521 FFFFFFFB
7296 E522 72                db      072h,075h    
     E523 75
7297 E524 73                db      073h,000h    
     E525 00
7298 E526 74                db      074h,000h    
     E527 00
7299 E528 75                db      075h,001h    
     E529 01
7300 E52A 76                db      076h,0f3h    
     E52B FFFFFFF3
7301 E52C 77                db      077h,0d5h    
     E52D FFFFFFD5
7302 E52E 78                db      078h,000h    
     E52F 00
7303 E530 79                db      079h,0d4h    
     E531 FFFFFFD4
7304 E532 7A                db      07ah,000h    
     E533 00
7305 E534 7B                db      07bh,0f0h    
     E535 FFFFFFF0
7306 E536 7C                db      07ch,096h    
     E537 FFFFFF96
7307 E538 7D                db      07dh,0c0h    
     E539 FFFFFFC0
7308 E53A 7E                db      07eh,002h    
     E53B 02
7309 E53C 7F                db      07fh,001h    
     E53D 01
7310 E53E 00                db      000h,09bh    
     E53F FFFFFF9B
7311 E540 08                db      008h,03fh    
     E541 3F
7312 E542 09                db      009h,0c1h    
     E543 FFFFFFC1
7313 E544 0A                db      00ah,019h    
     E545 19
7314 E546 0B                db      00bh,0a0h    
     E547 FFFFFFA0
7315 E548 0C                db      00ch,000h    
     E549 00
7316 E54A 0D                db      00dh,0ebh    
     E54B FFFFFFEB
7317 E54C 0E                db      00eh,002h    
     E54D 02
7318 E54E 0F                db      00fh,000h    
     E54F 00
7319 E550 10                db      010h,0bfh    
     E551 FFFFFFBF
7320 E552 11                db      011h,0ddh    
     E553 FFFFFFDD
7321 E554 12                db      012h,0d5h    
     E555 FFFFFFD5
7322 E556 13                db      013h,0b0h    
     E557 FFFFFFB0
7323 E558 14                db      014h,057h    
     E559 57
7324 E55A 15                db      015h,002h    
     E55B 02
7325 E55C 16                db      016h,06ch    
     E55D 6C
7326 E55E 17                db      017h,002h    
     E55F 02
7327 E560 18                db      018h,000h    
     E561 00
7328 E562 19                db      019h,000h    
     E563 00
7329 E564 1A                db      01ah,000h    
     E565 00
7330 E566 1B                db      01bh,0ceh    
     E567 FFFFFFCE
7331 E568 1C                db      01ch,086h    
     E569 FFFFFF86
7332 E56A 1D                db      01dh,00fh    
     E56B 0F
7333 E56C 1E                db      01eh,0afh    
     E56D FFFFFFAF
7334 E56E 1F                db      01fh,0bbh    
     E56F FFFFFFBB
7335 E570 20                db      020h,090h    
     E571 FFFFFF90
7336 E572 21                db      021h,03fh    
     E573 3F
7337 E574 22                db      022h,0c7h    
     E575 FFFFFFC7
7338 E576 23                db      023h,0fbh    
     E577 FFFFFFFB
7339 E578 24                db      024h,043h    
     E579 43
7340 E57A 25                db      025h,000h    
     E57B 00
7341 E57C 26                db      026h,0efh    
     E57D FFFFFFEF
7342 E57E 27                db      027h,001h    
     E57F 01
7343 E580 28                db      028h,003h    
     E581 03
7344 E582 29                db      029h,0afh    
     E583 FFFFFFAF
7345 E584 2A                db      02ah,0dfh    
     E585 FFFFFFDF
7346 E586 2B                db      02bh,06ah    
     E587 6A
7347 E588 2C                db      02ch,0cfh    
     E589 FFFFFFCF
7348 E58A 2D                db      02dh,000h    
     E58B 00
7349 E58C 2E                db      02eh,074h    
     E58D 74
7350 E58E 2F                db      02fh,076h    
     E58F 76
7351 E590 30                db      030h,000h    
     E591 00
7352 E592 31                db      031h,002h    
     E593 02
7353 E594 32                db      032h,020h    
     E595 20
7354 E596 33                db      033h,0edh    
     E597 FFFFFFED
7355 E598 34                db      034h,0d2h    
     E599 FFFFFFD2
7356 E59A 35                db      035h,0fbh    
     E59B FFFFFFFB
7357 E59C 36                db      036h,002h    
     E59D 02
7358 E59E 37                db      037h,0d5h    
     E59F FFFFFFD5
7359 E5A0 38                db      038h,09ah    
     E5A1 FFFFFF9A
7360 E5A2 39                db      039h,0bfh    
     E5A3 FFFFFFBF
7361 E5A4 3A                db      03ah,000h    
     E5A5 00
7362 E5A6 3B                db      03bh,0b6h    
     E5A7 FFFFFFB6
7363 E5A8 3C                db      03ch,0c4h    
     E5A9 FFFFFFC4
7364 E5AA 3D                db      03dh,002h    
     E5AB 02
7365 E5AC 3E                db      03eh,0fbh    
     E5AD FFFFFFFB
7366 E5AE 3F                db      03fh,0afh    
     E5AF FFFFFFAF
7367 E5B0 40                db      040h,043h    
     E5B1 43
7368 E5B2 41                db      041h,002h    
     E5B3 02
7369 E5B4 42                db      042h,074h    
     E5B5 74
7370 E5B6 43                db      043h,0beh    
     E5B7 FFFFFFBE
7371 E5B8 44                db      044h,006h    
     E5B9 06
7372 E5BA 45                db      045h,000h    
     E5BB 00
7373 E5BC 46                db      046h,0e4h    
     E5BD FFFFFFE4
7374 E5BE 47                db      047h,0d0h    
     E5BF FFFFFFD0
7375 E5C0 48                db      048h,000h    
     E5C1 00
7376 E5C2 49                db      049h,0ffh    
     E5C3 FFFFFFFF
7377 E5C4 4A                db      04ah,0d3h    
     E5C5 FFFFFFD3
7378 E5C6 4B                db      04bh,0c7h    
     E5C7 FFFFFFC7
7379 E5C8 4C                db      04ch,000h    
     E5C9 00
7380 E5CA 4D                db      04dh,0bch    
     E5CB FFFFFFBC
7381 E5CC 4E                db      04eh,04bh    
     E5CD 4B
7382 E5CE 4F                db      04fh,00fh    
     E5CF 0F
7383 E5D0 50                db      050h,0adh    
     E5D1 FFFFFFAD
7384 E5D2 51                db      051h,000h    
     E5D3 00
7385 E5D4 52                db      052h,000h    
     E5D5 00
7386 E5D6 53                db      053h,06ch    
     E5D7 6C
7387 E5D8 54                db      054h,0b6h    
     E5D9 FFFFFFB6
7388 E5DA 55                db      055h,0cah    
     E5DB FFFFFFCA
7389 E5DC 56                db      056h,0eah    
     E5DD FFFFFFEA
7390 E5DE 57                db      057h,078h    
     E5DF 78
7391 E5E0 58                db      058h,0d5h    
     E5E1 FFFFFFD5
7392 E5E2 59                db      059h,061h    
     E5E3 61
7393 E5E4 5A                db      05ah,0e3h    
     E5E5 FFFFFFE3
7394 E5E6 5B                db      05bh,000h    
     E5E7 00
7395 E5E8 5C                db      05ch,0c1h    
     E5E9 FFFFFFC1
7396 E5EA 5D                db      05dh,000h    
     E5EB 00
7397 E5EC 5E                db      05eh,067h    
     E5ED 67
7398 E5EE 5F                db      05fh,0e7h    
     E5EF FFFFFFE7
7399 E5F0 60                db      060h,0d7h    
     E5F1 FFFFFFD7
7400 E5F2 61                db      061h,068h    
     E5F3 68
7401 E5F4 62                db      062h,000h    
     E5F5 00
7402 E5F6 63                db      063h,0b0h    
     E5F7 FFFFFFB0
7403 E5F8 64                db      064h,002h    
     E5F9 02
7404 E5FA 65                db      065h,094h    
     E5FB FFFFFF94
7405 E5FC 66                db      066h,0bfh    
     E5FD FFFFFFBF
7406 E5FE 67                db      067h,0fbh    
     E5FF FFFFFFFB
7407 E600 68                db      068h,001h    
     E601 01
7408 E602 69                db      069h,0b2h    
     E603 FFFFFFB2
7409 E604 6A                db      06ah,03fh    
     E605 3F
7410 E606 6B                db      06bh,0d0h    
     E607 FFFFFFD0
7411 E608 6C                db      06ch,04ah    
     E609 4A
7412 E60A 6D                db      06dh,0b9h    
     E60B FFFFFFB9
7413 E60C 6E                db      06eh,047h    
     E60D 47
7414 E60E 6F                db      06fh,0f0h    
     E60F FFFFFFF0
7415 E610 70                db      070h,0e8h    
     E611 FFFFFFE8
7416 E612 71                db      071h,0dch    
     E613 FFFFFFDC
7417 E614 72                db      072h,057h    
     E615 57
7418 E616 73                db      073h,069h    
     E617 69
7419 E618 74                db      074h,06ch    
     E619 6C
7420 E61A 75                db      075h,002h    
     E61B 02
7421 E61C 76                db      076h,000h    
     E61D 00
7422 E61E 77                db      077h,000h    
     E61F 00
7423 E620 78                db      078h,000h    
     E621 00
7424 E622 79                db      079h,0cfh    
     E623 FFFFFFCF
7425 E624 7A                db      07ah,086h    
     E625 FFFFFF86
7426 E626 7B                db      07bh,00fh    
     E627 0F
7427 E628 7C                db      07ch,0afh    
     E629 FFFFFFAF
7428 E62A 7D                db      07dh,0bbh    
     E62B FFFFFFBB
7429 E62C 7E                db      07eh,090h    
     E62D FFFFFF90
7430 E62E 7F                db      07fh,0b6h    
     E62F FFFFFFB6
7431 E630 00                db      000h,09ch    
     E631 FFFFFF9C
7432 E632 08                db      008h,002h    
     E633 02
7433 E634 09                db      009h,000h    
     E635 00
7434 E636 0A                db      00ah,000h    
     E637 00
7435 E638 0B                db      00bh,07dh    
     E639 7D
7436 E63A 0C                db      00ch,001h    
     E63B 01
7437 E63C 0D                db      00dh,0e9h    
     E63D FFFFFFE9
7438 E63E 0E                db      00eh,0afh    
     E63F FFFFFFAF
7439 E640 0F                db      00fh,000h    
     E641 00
7440 E642 10                db      010h,019h    
     E643 19
7441 E644 11                db      011h,0d0h    
     E645 FFFFFFD0
7442 E646 12                db      012h,002h    
     E647 02
7443 E648 13                db      013h,05bh    
     E649 5B
7444 E64A 14                db      014h,0afh    
     E64B FFFFFFAF
7445 E64C 15                db      015h,0f2h    
     E64D FFFFFFF2
7446 E64E 16                db      016h,0cch    
     E64F FFFFFFCC
7447 E650 17                db      017h,0aah    
     E651 FFFFFFAA
7448 E652 18                db      018h,002h    
     E653 02
7449 E654 19                db      019h,0e7h    
     E655 FFFFFFE7
7450 E656 1A                db      01ah,000h    
     E657 00
7451 E658 1B                db      01bh,0ach    
     E659 FFFFFFAC
7452 E65A 1C                db      01ch,0c8h    
     E65B FFFFFFC8
7453 E65C 1D                db      01dh,044h    
     E65D 44
7454 E65E 1E                db      01eh,0fbh    
     E65F FFFFFFFB
7455 E660 1F                db      01fh,0d2h    
     E661 FFFFFFD2
7456 E662 20                db      020h,000h    
     E663 00
7457 E664 21                db      021h,090h    
     E665 FFFFFF90
7458 E666 22                db      022h,08fh    
     E667 FFFFFF8F
7459 E668 23                db      023h,0c2h    
     E669 FFFFFFC2
7460 E66A 24                db      024h,000h    
     E66B 00
7461 E66C 25                db      025h,00fh    
     E66D 0F
7462 E66E 26                db      026h,0efh    
     E66F FFFFFFEF
7463 E670 27                db      027h,0d5h    
     E671 FFFFFFD5
7464 E672 28                db      028h,000h    
     E673 00
7465 E674 29                db      029h,001h    
     E675 01
7466 E676 2A                db      02ah,0d7h    
     E677 FFFFFFD7
7467 E678 2B                db      02bh,0eeh    
     E679 FFFFFFEE
7468 E67A 2C                db      02ch,093h    
     E67B FFFFFF93
7469 E67C 2D                db      02dh,0b0h    
     E67D FFFFFFB0
7470 E67E 2E                db      02eh,0fbh    
     E67F FFFFFFFB
7471 E680 2F                db      02fh,001h    
     E681 01
7472 E682 30                db      030h,0aeh    
     E683 FFFFFFAE
7473 E684 31                db      031h,0b7h    
     E685 FFFFFFB7
7474 E686 32                db      032h,000h    
     E687 00
7475 E688 33                db      033h,0ffh    
     E689 FFFFFFFF
7476 E68A 34                db      034h,000h    
     E68B 00
7477 E68C 35                db      035h,0ceh    
     E68D FFFFFFCE
7478 E68E 36                db      036h,0ech    
     E68F FFFFFFEC
7479 E690 37                db      037h,079h    
     E691 79
7480 E692 38                db      038h,00fh    
     E693 0F
7481 E694 39                db      039h,058h    
     E695 58
7482 E696 3A                db      03ah,0a2h    
     E697 FFFFFFA2
7483 E698 3B                db      03bh,0cfh    
     E699 FFFFFFCF
7484 E69A 3C                db      03ch,002h    
     E69B 02
7485 E69C 3D                db      03dh,0fbh    
     E69D FFFFFFFB
7486 E69E 3E                db      03eh,0b5h    
     E69F FFFFFFB5
7487 E6A0 3F                db      03fh,0c0h    
     E6A1 FFFFFFC0
7488 E6A2 40                db      040h,0deh    
     E6A3 FFFFFFDE
7489 E6A4 41                db      041h,000h    
     E6A5 00
7490 E6A6 42                db      042h,0c8h    
     E6A7 FFFFFFC8
7491 E6A8 43                db      043h,052h    
     E6A9 52
7492 E6AA 44                db      044h,0fbh    
     E6AB FFFFFFFB
7493 E6AC 45                db      045h,07eh    
     E6AD 7E
7494 E6AE 46                db      046h,0fbh    
     E6AF FFFFFFFB
7495 E6B0 47                db      047h,08ah    
     E6B1 FFFFFF8A
7496 E6B2 48                db      048h,01eh    
     E6B3 1E
7497 E6B4 49                db      049h,09bh    
     E6B5 FFFFFF9B
7498 E6B6 4A                db      04ah,0cah    
     E6B7 FFFFFFCA
7499 E6B8 4B                db      04bh,084h    
     E6B9 FFFFFF84
7500 E6BA 4C                db      04ch,06dh    
     E6BB 6D
7501 E6BC 4D                db      04dh,000h    
     E6BD 00
7502 E6BE 4E                db      04eh,002h    
     E6BF 02
7503 E6C0 4F                db      04fh,000h    
     E6C1 00
7504 E6C2 50                db      050h,0ach    
     E6C3 FFFFFFAC
7505 E6C4 51                db      051h,0eah    
     E6C5 FFFFFFEA
7506 E6C6 52                db      052h,06fh    
     E6C7 6F
7507 E6C8 53                db      053h,000h    
     E6C9 00
7508 E6CA 54                db      054h,002h    
     E6CB 02
7509 E6CC 55                db      055h,0e3h    
     E6CD FFFFFFE3
7510 E6CE 56                db      056h,00fh    
     E6CF 0F
7511 E6D0 57                db      057h,058h    
     E6D1 58
7512 E6D2 58                db      058h,000h    
     E6D3 00
7513 E6D4 59                db      059h,000h    
     E6D5 00
7514 E6D6 5A                db      05ah,000h    
     E6D7 00
7515 E6D8 5B                db      05bh,0cbh    
     E6D9 FFFFFFCB
7516 E6DA 5C                db      05ch,059h    
     E6DB 59
7517 E6DC 5D                db      05dh,002h    
     E6DD 02
7518 E6DE 5E                db      05eh,000h    
     E6DF 00
7519 E6E0 5F                db      05fh,0b6h    
     E6E1 FFFFFFB6
7520 E6E2 60                db      060h,07dh    
     E6E3 7D
7521 E6E4 61                db      061h,001h    
     E6E5 01
7522 E6E6 62                db      062h,09fh    
     E6E7 FFFFFF9F
7523 E6E8 63                db      063h,000h    
     E6E9 00
7524 E6EA 64                db      064h,000h    
     E6EB 00
7525 E6EC 65                db      065h,001h    
     E6ED 01
7526 E6EE 66                db      066h,0d0h    
     E6EF FFFFFFD0
7527 E6F0 67                db      067h,002h    
     E6F1 02
7528 E6F2 68                db      068h,05ch    
     E6F3 5C
7529 E6F4 69                db      069h,000h    
     E6F5 00
7530 E6F6 6A                db      06ah,0f0h    
     E6F7 FFFFFFF0
7531 E6F8 6B                db      06bh,069h    
     E6F9 69
7532 E6FA 6C                db      06ch,0a6h    
     E6FB FFFFFFA6
7533 E6FC 6D                db      06dh,000h    
     E6FD 00
7534 E6FE 6E                db      06eh,0e6h    
     E6FF FFFFFFE6
7535 E700 6F                db      06fh,000h    
     E701 00
7536 E702 70                db      070h,058h    
     E703 58
7537 E704 71                db      071h,087h    
     E705 FFFFFF87
7538 E706 72                db      072h,0c7h    
     E707 FFFFFFC7
7539 E708 73                db      073h,08ah    
     E709 FFFFFF8A
7540 E70A 74                db      074h,001h    
     E70B 01
7541 E70C 75                db      075h,017h    
     E70D 17
7542 E70E 76                db      076h,0deh    
     E70F FFFFFFDE
7543 E710 77                db      077h,06eh    
     E711 6E
7544 E712 78                db      078h,002h    
     E713 02
7545 E714 79                db      079h,000h    
     E715 00
7546 E716 7A                db      07ah,0e7h    
     E717 FFFFFFE7
7547 E718 7B                db      07bh,09fh    
     E719 FFFFFF9F
7548 E71A 7C                db      07ch,0cch    
     E71B FFFFFFCC
7549 E71C 7D                db      07dh,002h    
     E71D 02
7550 E71E 7E                db      07eh,00fh    
     E71F 0F
7551 E720 7F                db      07fh,0b3h    
     E721 FFFFFFB3
7552 E722 00                db      000h,09dh    
     E723 FFFFFF9D
7553 E724 08                db      008h,0b9h    
     E725 FFFFFFB9
7554 E726 09                db      009h,0b0h    
     E727 FFFFFFB0
7555 E728 0A                db      00ah,012h    
     E729 12
7556 E72A 0B                db      00bh,000h    
     E72B 00
7557 E72C 0C                db      00ch,04fh    
     E72D 4F
7558 E72E 0D                db      00dh,0fbh    
     E72F FFFFFFFB
7559 E730 0E                db      00eh,002h    
     E731 02
7560 E732 0F                db      00fh,0dch    
     E733 FFFFFFDC
7561 E734 10                db      010h,000h    
     E735 00
7562 E736 11                db      011h,000h    
     E737 00
7563 E738 12                db      012h,094h    
     E739 FFFFFF94
7564 E73A 13                db      013h,0fbh    
     E73B FFFFFFFB
7565 E73C 14                db      014h,080h    
     E73D FFFFFF80
7566 E73E 15                db      015h,00fh    
     E73F 0F
7567 E740 16                db      016h,0e5h    
     E741 FFFFFFE5
7568 E742 17                db      017h,000h    
     E743 00
7569 E744 18                db      018h,074h    
     E745 74
7570 E746 19                db      019h,058h    
     E747 58
7571 E748 1A                db      01ah,002h    
     E749 02
7572 E74A 1B                db      01bh,019h    
     E74B 19
7573 E74C 1C                db      01ch,0a2h    
     E74D FFFFFFA2
7574 E74E 1D                db      01dh,0d6h    
     E74F FFFFFFD6
7575 E750 1E                db      01eh,002h    
     E751 02
7576 E752 1F                db      01fh,0fbh    
     E753 FFFFFFFB
7577 E754 20                db      020h,0b5h    
     E755 FFFFFFB5
7578 E756 21                db      021h,0bbh    
     E757 FFFFFFBB
7579 E758 22                db      022h,0deh    
     E759 FFFFFFDE
7580 E75A 23                db      023h,001h    
     E75B 01
7581 E75C 24                db      024h,0c8h    
     E75D FFFFFFC8
7582 E75E 25                db      025h,056h    
     E75F 56
7583 E760 26                db      026h,0fbh    
     E761 FFFFFFFB
7584 E762 27                db      027h,002h    
     E763 02
7585 E764 28                db      028h,0fbh    
     E765 FFFFFFFB
7586 E766 29                db      029h,08ah    
     E767 FFFFFF8A
7587 E768 2A                db      02ah,01eh    
     E769 1E
7588 E76A 2B                db      02bh,09bh    
     E76B FFFFFF9B
7589 E76C 2C                db      02ch,0cah    
     E76D FFFFFFCA
7590 E76E 2D                db      02dh,084h    
     E76F FFFFFF84
7591 E770 2E                db      02eh,000h    
     E771 00
7592 E772 2F                db      02fh,000h    
     E773 00
7593 E774 30                db      030h,002h    
     E775 02
7594 E776 31                db      031h,000h    
     E777 00
7595 E778 32                db      032h,0afh    
     E779 FFFFFFAF
7596 E77A 33                db      033h,0eah    
     E77B FFFFFFEA
7597 E77C 34                db      034h,0cch    
     E77D FFFFFFCC
7598 E77E 35                db      035h,000h    
     E77F 00
7599 E780 36                db      036h,0b3h    
     E781 FFFFFFB3
7600 E782 37                db      037h,0e3h    
     E783 FFFFFFE3
7601 E784 38                db      038h,000h    
     E785 00
7602 E786 39                db      039h,0b5h    
     E787 FFFFFFB5
7603 E788 3A                db      03ah,020h    
     E789 20
7604 E78A 3B                db      03bh,03fh    
     E78B 3F
7605 E78C 3C                db      03ch,0ach    
     E78D FFFFFFAC
7606 E78E 3D                db      03dh,0d4h    
     E78F FFFFFFD4
7607 E790 3E                db      03eh,048h    
     E791 48
7608 E792 3F                db      03fh,0bch    
     E793 FFFFFFBC
7609 E794 40                db      040h,04bh    
     E795 4B
7610 E796 41                db      041h,0fbh    
     E797 FFFFFFFB
7611 E798 42                db      042h,0fbh    
     E799 FFFFFFFB
7612 E79A 43                db      043h,0d6h    
     E79B FFFFFFD6
7613 E79C 44                db      044h,062h    
     E79D 62
7614 E79E 45                db      045h,01ah    
     E79F 1A
7615 E7A0 46                db      046h,021h    
     E7A1 21
7616 E7A2 47                db      047h,0e8h    
     E7A3 FFFFFFE8
7617 E7A4 48                db      048h,000h    
     E7A5 00
7618 E7A6 49                db      049h,000h    
     E7A7 00
7619 E7A8 4A                db      04ah,000h    
     E7A9 00
7620 E7AA 4B                db      04bh,002h    
     E7AB 02
7621 E7AC 4C                db      04ch,06fh    
     E7AD 6F
7622 E7AE 4D                db      04dh,000h    
     E7AF 00
7623 E7B0 4E                db      04eh,0ddh    
     E7B1 FFFFFFDD
7624 E7B2 4F                db      04fh,0fbh    
     E7B3 FFFFFFFB
7625 E7B4 50                db      050h,000h    
     E7B5 00
7626 E7B6 51                db      051h,0c4h    
     E7B7 FFFFFFC4
7627 E7B8 52                db      052h,002h    
     E7B9 02
7628 E7BA 53                db      053h,001h    
     E7BB 01
7629 E7BC 54                db      054h,03fh    
     E7BD 3F
7630 E7BE 55                db      055h,000h    
     E7BF 00
7631 E7C0 56                db      056h,0d8h    
     E7C1 FFFFFFD8
7632 E7C2 57                db      057h,03bh    
     E7C3 3B
7633 E7C4 58                db      058h,0bfh    
     E7C5 FFFFFFBF
7634 E7C6 59                db      059h,050h    
     E7C7 50
7635 E7C8 5A                db      05ah,0fbh    
     E7C9 FFFFFFFB
7636 E7CA 5B                db      05bh,002h    
     E7CB 02
7637 E7CC 5C                db      05ch,0ddh    
     E7CD FFFFFFDD
7638 E7CE 5D                db      05dh,079h    
     E7CF 79
7639 E7D0 5E                db      05eh,001h    
     E7D1 01
7640 E7D2 5F                db      05fh,092h    
     E7D3 FFFFFF92
7641 E7D4 60                db      060h,0eeh    
     E7D5 FFFFFFEE
7642 E7D6 61                db      061h,000h    
     E7D7 00
7643 E7D8 62                db      062h,06ah    
     E7D9 6A
7644 E7DA 63                db      063h,018h    
     E7DB 18
7645 E7DC 64                db      064h,0ddh    
     E7DD FFFFFFDD
7646 E7DE 65                db      065h,075h    
     E7DF 75
7647 E7E0 66                db      066h,000h    
     E7E1 00
7648 E7E2 67                db      067h,0dfh    
     E7E3 FFFFFFDF
7649 E7E4 68                db      068h,0e4h    
     E7E5 FFFFFFE4
7650 E7E6 69                db      069h,09dh    
     E7E7 FFFFFF9D
7651 E7E8 6A                db      06ah,0cah    
     E7E9 FFFFFFCA
7652 E7EA 6B                db      06bh,074h    
     E7EB 74
7653 E7EC 6C                db      06ch,001h    
     E7ED 01
7654 E7EE 6D                db      06dh,0b3h    
     E7EF FFFFFFB3
7655 E7F0 6E                db      06eh,0bch    
     E7F1 FFFFFFBC
7656 E7F2 6F                db      06fh,0dah    
     E7F3 FFFFFFDA
7657 E7F4 70                db      070h,058h    
     E7F5 58
7658 E7F6 71                db      071h,0b8h    
     E7F7 FFFFFFB8
7659 E7F8 72                db      072h,0c1h    
     E7F9 FFFFFFC1
7660 E7FA 73                db      073h,021h    
     E7FB 21
7661 E7FC 74                db      074h,0fbh    
     E7FD FFFFFFFB
7662 E7FE 75                db      075h,002h    
     E7FF 02
7663 E800 76                db      076h,0e0h    
     E801 FFFFFFE0
7664 E802 77                db      077h,07ah    
     E803 7A
7665 E804 78                db      078h,000h    
     E805 00
7666 E806 79                db      079h,099h    
     E807 FFFFFF99
7667 E808 7A                db      07ah,002h    
     E809 02
7668 E80A 7B                db      07bh,082h    
     E80B FFFFFF82
7669 E80C 7C                db      07ch,00fh    
     E80D 0F
7670 E80E 7D                db      07dh,023h    
     E80F 23
7671 E810 7E                db      07eh,000h    
     E811 00
7672 E812 7F                db      07fh,08fh    
     E813 FFFFFF8F
7673 E814 00                db      000h,09eh    
     E815 FFFFFF9E
7674 E816 08                db      008h,099h    
     E817 FFFFFF99
7675 E818 09                db      009h,000h    
     E819 00
7676 E81A 0A                db      00ah,002h    
     E81B 02
7677 E81C 0B                db      00bh,021h    
     E81D 21
7678 E81E 0C                db      00ch,0b6h    
     E81F FFFFFFB6
7679 E820 0D                db      00dh,0afh    
     E821 FFFFFFAF
7680 E822 0E                db      00eh,0d5h    
     E823 FFFFFFD5
7681 E824 0F                db      00fh,048h    
     E825 48
7682 E826 10                db      010h,0bdh    
     E827 FFFFFFBD
7683 E828 11                db      011h,043h    
     E829 43
7684 E82A 12                db      012h,0fbh    
     E82B FFFFFFFB
7685 E82C 13                db      013h,0fbh    
     E82D FFFFFFFB
7686 E82E 14                db      014h,0b0h    
     E82F FFFFFFB0
7687 E830 15                db      015h,062h    
     E831 62
7688 E832 16                db      016h,01bh    
     E833 1B
7689 E834 17                db      017h,05ch    
     E835 5C
7690 E836 18                db      018h,0eah    
     E837 FFFFFFEA
7691 E838 19                db      019h,000h    
     E839 00
7692 E83A 1A                db      01ah,000h    
     E83B 00
7693 E83C 1B                db      01bh,000h    
     E83D 00
7694 E83E 1C                db      01ch,052h    
     E83F 52
7695 E840 1D                db      01dh,070h    
     E841 70
7696 E842 1E                db      01eh,000h    
     E843 00
7697 E844 1F                db      01fh,0dch    
     E845 FFFFFFDC
7698 E846 20                db      020h,0f3h    
     E847 FFFFFFF3
7699 E848 21                db      021h,000h    
     E849 00
7700 E84A 22                db      022h,0c8h    
     E84B FFFFFFC8
7701 E84C 23                db      023h,069h    
     E84D 69
7702 E84E 24                db      024h,001h    
     E84F 01
7703 E850 25                db      025h,0b6h    
     E851 FFFFFFB6
7704 E852 26                db      026h,0b0h    
     E853 FFFFFFB0
7705 E854 27                db      027h,000h    
     E855 00
7706 E856 28                db      028h,060h    
     E857 60
7707 E858 29                db      029h,0c2h    
     E859 FFFFFFC2
7708 E85A 2A                db      02ah,051h    
     E85B 51
7709 E85C 2B                db      02bh,002h    
     E85D 02
7710 E85E 2C                db      02ch,07dh    
     E85F 7D
7711 E860 2D                db      02dh,0deh    
     E861 FFFFFFDE
7712 E862 2E                db      02eh,079h    
     E863 79
7713 E864 2F                db      02fh,001h    
     E865 01
7714 E866 30                db      030h,096h    
     E867 FFFFFF96
7715 E868 31                db      031h,0f0h    
     E869 FFFFFFF0
7716 E86A 32                db      032h,07eh    
     E86B 7E
7717 E86C 33                db      033h,06bh    
     E86D 6B
7718 E86E 34                db      034h,019h    
     E86F 19
7719 E870 35                db      035h,0dch    
     E871 FFFFFFDC
7720 E872 36                db      036h,076h    
     E873 76
7721 E874 37                db      037h,058h    
     E875 58
7722 E876 38                db      038h,0b0h    
     E877 FFFFFFB0
7723 E878 39                db      039h,051h    
     E879 51
7724 E87A 3A                db      03ah,0ach    
     E87B FFFFFFAC
7725 E87C 3B                db      03bh,0c9h    
     E87D FFFFFFC9
7726 E87E 3C                db      03ch,044h    
     E87F 44
7727 E880 3D                db      03dh,002h    
     E881 02
7728 E882 3E                db      03eh,0d2h    
     E883 FFFFFFD2
7729 E884 3F                db      03fh,05fh    
     E885 5F
7730 E886 40                db      040h,090h    
     E887 FFFFFF90
7731 E888 41                db      041h,074h    
     E889 74
7732 E88A 42                db      042h,0c2h    
     E88B FFFFFFC2
7733 E88C 43                db      043h,000h    
     E88D 00
7734 E88E 44                db      044h,00fh    
     E88F 0F
7735 E890 45                db      045h,0efh    
     E891 FFFFFFEF
7736 E892 46                db      046h,0d5h    
     E893 FFFFFFD5
7737 E894 47                db      047h,000h    
     E895 00
7738 E896 48                db      048h,001h    
     E897 01
7739 E898 49                db      049h,0d8h    
     E899 FFFFFFD8
7740 E89A 4A                db      04ah,0eeh    
     E89B FFFFFFEE
7741 E89C 4B                db      04bh,093h    
     E89D FFFFFF93
7742 E89E 4C                db      04ch,0b0h    
     E89F FFFFFFB0
7743 E8A0 4D                db      04dh,0fbh    
     E8A1 FFFFFFFB
7744 E8A2 4E                db      04eh,001h    
     E8A3 01
7745 E8A4 4F                db      04fh,0aeh    
     E8A5 FFFFFFAE
7746 E8A6 50                db      050h,0b7h    
     E8A7 FFFFFFB7
7747 E8A8 51                db      051h,000h    
     E8A9 00
7748 E8AA 52                db      052h,01bh    
     E8AB 1B
7749 E8AC 53                db      053h,000h    
     E8AD 00
7750 E8AE 54                db      054h,0ceh    
     E8AF FFFFFFCE
7751 E8B0 55                db      055h,0ech    
     E8B1 FFFFFFEC
7752 E8B2 56                db      056h,07bh    
     E8B3 7B
7753 E8B4 57                db      057h,0d5h    
     E8B5 FFFFFFD5
7754 E8B6 58                db      058h,064h    
     E8B7 64
7755 E8B8 59                db      059h,0e4h    
     E8B9 FFFFFFE4
7756 E8BA 5A                db      05ah,090h    
     E8BB FFFFFF90
7757 E8BC 5B                db      05bh,0c6h    
     E8BD FFFFFFC6
7758 E8BE 5C                db      05ch,0bbh    
     E8BF FFFFFFBB
7759 E8C0 5D                db      05dh,000h    
     E8C1 00
7760 E8C2 5E                db      05eh,0e4h    
     E8C3 FFFFFFE4
7761 E8C4 5F                db      05fh,000h    
     E8C5 00
7762 E8C6 60                db      060h,087h    
     E8C7 FFFFFF87
7763 E8C8 61                db      061h,0beh    
     E8C9 FFFFFFBE
7764 E8CA 62                db      062h,0dah    
     E8CB FFFFFFDA
7765 E8CC 63                db      063h,002h    
     E8CD 02
7766 E8CE 64                db      064h,098h    
     E8CF FFFFFF98
7767 E8D0 65                db      065h,0c3h    
     E8D1 FFFFFFC3
7768 E8D2 66                db      066h,002h    
     E8D3 02
7769 E8D4 67                db      067h,01eh    
     E8D5 1E
7770 E8D6 68                db      068h,049h    
     E8D7 49
7771 E8D8 69                db      069h,0ach    
     E8D9 FFFFFFAC
7772 E8DA 6A                db      06ah,0d0h    
     E8DB FFFFFFD0
7773 E8DC 6B                db      06bh,00ch    
     E8DD 0C
7774 E8DE 6C                db      06ch,0b8h    
     E8DF FFFFFFB8
7775 E8E0 6D                db      06dh,04ah    
     E8E1 4A
7776 E8E2 6E                db      06eh,0f2h    
     E8E3 FFFFFFF2
7777 E8E4 6F                db      06fh,003h    
     E8E5 03
7778 E8E6 70                db      070h,068h    
     E8E7 68
7779 E8E8 71                db      071h,0c1h    
     E8E9 FFFFFFC1
7780 E8EA 72                db      072h,090h    
     E8EB FFFFFF90
7781 E8EC 73                db      073h,03fh    
     E8ED 3F
7782 E8EE 74                db      074h,0c7h    
     E8EF FFFFFFC7
7783 E8F0 75                db      075h,0fbh    
     E8F1 FFFFFFFB
7784 E8F2 76                db      076h,043h    
     E8F3 43
7785 E8F4 77                db      077h,000h    
     E8F5 00
7786 E8F6 78                db      078h,0efh    
     E8F7 FFFFFFEF
7787 E8F8 79                db      079h,001h    
     E8F9 01
7788 E8FA 7A                db      07ah,003h    
     E8FB 03
7789 E8FC 7B                db      07bh,0afh    
     E8FD FFFFFFAF
7790 E8FE 7C                db      07ch,0dfh    
     E8FF FFFFFFDF
7791 E900 7D                db      07dh,06ah    
     E901 6A
7792 E902 7E                db      07eh,0cfh    
     E903 FFFFFFCF
7793 E904 7F                db      07fh,000h    
     E905 00
7794 E906 00                db      000h,09fh    
     E907 FFFFFF9F
7795 E908 08                db      008h,001h    
     E909 01
7796 E90A 09                db      009h,000h    
     E90B 00
7797 E90C 0A                db      00ah,0deh    
     E90D FFFFFFDE
7798 E90E 0B                db      00bh,073h    
     E90F 73
7799 E910 0C                db      00ch,0b5h    
     E911 FFFFFFB5
7800 E912 0D                db      00dh,0dfh    
     E913 FFFFFFDF
7801 E914 0E                db      00eh,0e2h    
     E915 FFFFFFE2
7802 E916 0F                db      00fh,09eh    
     E917 FFFFFF9E
7803 E918 10                db      010h,0c7h    
     E919 FFFFFFC7
7804 E91A 11                db      011h,002h    
     E91B 02
7805 E91C 12                db      012h,001h    
     E91D 01
7806 E91E 13                db      013h,002h    
     E91F 02
7807 E920 14                db      014h,0b8h    
     E921 FFFFFFB8
7808 E922 15                db      015h,0dbh    
     E923 FFFFFFDB
7809 E924 16                db      016h,086h    
     E925 FFFFFF86
7810 E926 17                db      017h,0c1h    
     E927 FFFFFFC1
7811 E928 18                db      018h,021h    
     E929 21
7812 E92A 19                db      019h,0fbh    
     E92B FFFFFFFB
7813 E92C 1A                db      01ah,000h    
     E92D 00
7814 E92E 1B                db      01bh,0e0h    
     E92F FFFFFFE0
7815 E930 1C                db      01ch,07ah    
     E931 7A
7816 E932 1D                db      01dh,000h    
     E933 00
7817 E934 1E                db      01eh,098h    
     E935 FFFFFF98
7818 E936 1F                db      01fh,002h    
     E937 02
7819 E938 20                db      020h,082h    
     E939 FFFFFF82
7820 E93A 21                db      021h,00fh    
     E93B 0F
7821 E93C 22                db      022h,023h    
     E93D 23
7822 E93E 23                db      023h,000h    
     E93F 00
7823 E940 24                db      024h,08fh    
     E941 FFFFFF8F
7824 E942 25                db      025h,09ah    
     E943 FFFFFF9A
7825 E944 26                db      026h,044h    
     E945 44
7826 E946 27                db      027h,018h    
     E947 18
7827 E948 28                db      028h,0a1h    
     E949 FFFFFFA1
7828 E94A 29                db      029h,001h    
     E94B 01
7829 E94C 2A                db      02ah,090h    
     E94D FFFFFF90
7830 E94E 2B                db      02bh,002h    
     E94F 02
7831 E950 2C                db      02ch,000h    
     E951 00
7832 E952 2D                db      02dh,0beh    
     E953 FFFFFFBE
7833 E954 2E                db      02eh,0deh    
     E955 FFFFFFDE
7834 E956 2F                db      02fh,0d4h    
     E957 FFFFFFD4
7835 E958 30                db      030h,0c9h    
     E959 FFFFFFC9
7836 E95A 31                db      031h,057h    
     E95B 57
7837 E95C 32                db      032h,002h    
     E95D 02
7838 E95E 33                db      033h,080h    
     E95F FFFFFF80
7839 E960 34                db      034h,0fbh    
     E961 FFFFFFFB
7840 E962 35                db      035h,0fbh    
     E963 FFFFFFFB
7841 E964 36                db      036h,01fh    
     E965 1F
7842 E966 37                db      037h,000h    
     E967 00
7843 E968 38                db      038h,000h    
     E969 00
7844 E96A 39                db      039h,0bfh    
     E96B FFFFFFBF
7845 E96C 3A                db      03ah,075h    
     E96D 75
7846 E96E 3B                db      03bh,0b6h    
     E96F FFFFFFB6
7847 E970 3C                db      03ch,0c1h    
     E971 FFFFFFC1
7848 E972 3D                db      03dh,0e5h    
     E973 FFFFFFE5
7849 E974 3E                db      03eh,0a4h    
     E975 FFFFFFA4
7850 E976 3F                db      03fh,000h    
     E977 00
7851 E978 40                db      040h,0ebh    
     E979 FFFFFFEB
7852 E97A 41                db      041h,074h    
     E97B 74
7853 E97C 42                db      042h,002h    
     E97D 02
7854 E97E 43                db      043h,0c2h    
     E97F FFFFFFC2
7855 E980 44                db      044h,0dch    
     E981 FFFFFFDC
7856 E982 45                db      045h,000h    
     E983 00
7857 E984 46                db      046h,0cch    
     E985 FFFFFFCC
7858 E986 47                db      047h,056h    
     E987 56
7859 E988 48                db      048h,069h    
     E989 69
7860 E98A 49                db      049h,000h    
     E98B 00
7861 E98C 4A                db      04ah,002h    
     E98D 02
7862 E98E 4B                db      04bh,000h    
     E98F 00
7863 E990 4C                db      04ch,000h    
     E991 00
7864 E992 4D                db      04dh,09ah    
     E993 FFFFFF9A
7865 E994 4E                db      04eh,0cfh    
     E995 FFFFFFCF
7866 E996 4F                db      04fh,086h    
     E997 FFFFFF86
7867 E998 50                db      050h,00fh    
     E999 0F
7868 E99A 51                db      051h,0afh    
     E99B FFFFFFAF
7869 E99C 52                db      052h,0fbh    
     E99D FFFFFFFB
7870 E99E 53                db      053h,090h    
     E99F FFFFFF90
7871 E9A0 54                db      054h,0b6h    
     E9A1 FFFFFFB6
7872 E9A2 55                db      055h,0c7h    
     E9A3 FFFFFFC7
7873 E9A4 56                db      056h,002h    
     E9A5 02
7874 E9A6 57                db      057h,0a8h    
     E9A7 FFFFFFA8
7875 E9A8 58                db      058h,0b5h    
     E9A9 FFFFFFB5
7876 E9AA 59                db      059h,0f1h    
     E9AB FFFFFFF1
7877 E9AC 5A                db      05ah,06ah    
     E9AD 6A
7878 E9AE 5B                db      05bh,058h    
     E9AF 58
7879 E9B0 5C                db      05ch,0c6h    
     E9B1 FFFFFFC6
7880 E9B2 5D                db      05dh,0fbh    
     E9B3 FFFFFFFB
7881 E9B4 5E                db      05eh,062h    
     E9B5 62
7882 E9B6 5F                db      05fh,000h    
     E9B7 00
7883 E9B8 60                db      060h,058h    
     E9B9 58
7884 E9BA 61                db      061h,0fbh    
     E9BB FFFFFFFB
7885 E9BC 62                db      062h,08ah    
     E9BD FFFFFF8A
7886 E9BE 63                db      063h,0b0h    
     E9BF FFFFFFB0
7887 E9C0 64                db      064h,002h    
     E9C1 02
7888 E9C2 65                db      065h,021h    
     E9C3 21
7889 E9C4 66                db      066h,0e2h    
     E9C5 FFFFFFE2
7890 E9C6 67                db      067h,0d1h    
     E9C7 FFFFFFD1
7891 E9C8 68                db      068h,0fbh    
     E9C9 FFFFFFFB
7892 E9CA 69                db      069h,002h    
     E9CB 02
7893 E9CC 6A                db      06ah,0d5h    
     E9CD FFFFFFD5
7894 E9CE 6B                db      06bh,0ech    
     E9CF FFFFFFEC
7895 E9D0 6C                db      06ch,05ch    
     E9D1 5C
7896 E9D2 6D                db      06dh,0b9h    
     E9D3 FFFFFFB9
7897 E9D4 6E                db      06eh,0fbh    
     E9D5 FFFFFFFB
7898 E9D6 6F                db      06fh,000h    
     E9D7 00
7899 E9D8 70                db      070h,0efh    
     E9D9 FFFFFFEF
7900 E9DA 71                db      071h,095h    
     E9DB FFFFFF95
7901 E9DC 72                db      072h,06ah    
     E9DD 6A
7902 E9DE 73                db      073h,019h    
     E9DF 19
7903 E9E0 74                db      074h,0ddh    
     E9E1 FFFFFFDD
7904 E9E2 75                db      075h,076h    
     E9E3 76
7905 E9E4 76                db      076h,000h    
     E9E5 00
7906 E9E6 77                db      077h,0fbh    
     E9E7 FFFFFFFB
7907 E9E8 78                db      078h,0e4h    
     E9E9 FFFFFFE4
7908 E9EA 79                db      079h,09dh    
     E9EB FFFFFF9D
7909 E9EC 7A                db      07ah,0cah    
     E9ED FFFFFFCA
7910 E9EE 7B                db      07bh,0fbh    
     E9EF FFFFFFFB
7911 E9F0 7C                db      07ch,001h    
     E9F1 01
7912 E9F2 7D                db      07dh,000h    
     E9F3 00
7913 E9F4 7E                db      07eh,0bch    
     E9F5 FFFFFFBC
7914 E9F6 7F                db      07fh,0d9h    
     E9F7 FFFFFFD9
7915 E9F8 00                db      000h,0a0h    
     E9F9 FFFFFFA0
7916 E9FA 08                db      008h,094h    
     E9FB FFFFFF94
7917 E9FC 09                db      009h,0bfh    
     E9FD FFFFFFBF
7918 E9FE 0A                db      00ah,052h    
     E9FF 52
7919 EA00 0B                db      00bh,001h    
     EA01 01
7920 EA02 0C                db      00ch,0b2h    
     EA03 FFFFFFB2
7921 EA04 0D                db      00dh,03fh    
     EA05 3F
7922 EA06 0E                db      00eh,0d1h    
     EA07 FFFFFFD1
7923 EA08 0F                db      00fh,04ah    
     EA09 4A
7924 EA0A 10                db      010h,0bah    
     EA0B FFFFFFBA
7925 EA0C 11                db      011h,047h    
     EA0D 47
7926 EA0E 12                db      012h,0eeh    
     EA0F FFFFFFEE
7927 EA10 13                db      013h,07ah    
     EA11 7A
7928 EA12 14                db      014h,0d8h    
     EA13 FFFFFFD8
7929 EA14 15                db      015h,067h    
     EA15 67
7930 EA16 16                db      016h,0e5h    
     EA17 FFFFFFE5
7931 EA18 17                db      017h,05ch    
     EA19 5C
7932 EA1A 18                db      018h,0bbh    
     EA1B FFFFFFBB
7933 EA1C 19                db      019h,08ah    
     EA1D FFFFFF8A
7934 EA1E 1A                db      01ah,001h    
     EA1F 01
7935 EA20 1B                db      01bh,016h    
     EA21 16
7936 EA22 1C                db      01ch,0fbh    
     EA23 FFFFFFFB
7937 EA24 1D                db      01dh,06bh    
     EA25 6B
7938 EA26 1E                db      01eh,000h    
     EA27 00
7939 EA28 1F                db      01fh,0deh    
     EA29 FFFFFFDE
7940 EA2A 20                db      020h,0fbh    
     EA2B FFFFFFFB
7941 EA2C 21                db      021h,097h    
     EA2D FFFFFF97
7942 EA2E 22                db      022h,0afh    
     EA2F FFFFFFAF
7943 EA30 23                db      023h,0fbh    
     EA31 FFFFFFFB
7944 EA32 24                db      024h,000h    
     EA33 00
7945 EA34 25                db      025h,0b4h    
     EA35 FFFFFFB4
7946 EA36 26                db      026h,03fh    
     EA37 3F
7947 EA38 27                db      027h,0d4h    
     EA39 FFFFFFD4
7948 EA3A 28                db      028h,022h    
     EA3B 22
7949 EA3C 29                db      029h,0c0h    
     EA3D FFFFFFC0
7950 EA3E 2A                db      02ah,049h    
     EA3F 49
7951 EA40 2B                db      02bh,002h    
     EA41 02
7952 EA42 2C                db      02ch,0fbh    
     EA43 FFFFFFFB
7953 EA44 2D                db      02dh,0dah    
     EA45 FFFFFFDA
7954 EA46 2E                db      02eh,077h    
     EA47 77
7955 EA48 2F                db      02fh,000h    
     EA49 00
7956 EA4A 30                db      030h,000h    
     EA4B 00
7957 EA4C 31                db      031h,0dfh    
     EA4D FFFFFFDF
7958 EA4E 32                db      032h,0fbh    
     EA4F FFFFFFFB
7959 EA50 33                db      033h,00fh    
     EA51 0F
7960 EA52 34                db      034h,016h    
     EA53 16
7961 EA54 35                db      035h,0ddh    
     EA55 FFFFFFDD
7962 EA56 36                db      036h,072h    
     EA57 72
7963 EA58 37                db      037h,005h    
     EA59 05
7964 EA5A 38                db      038h,043h    
     EA5B 43
7965 EA5C 39                db      039h,0dch    
     EA5D FFFFFFDC
7966 EA5E 3A                db      03ah,018h    
     EA5F 18
7967 EA60 3B                db      03bh,0d0h    
     EA61 FFFFFFD0
7968 EA62 3C                db      03ch,002h    
     EA63 02
7969 EA64 3D                db      03dh,05ch    
     EA65 5C
7970 EA66 3E                db      03eh,0b0h    
     EA67 FFFFFFB0
7971 EA68 3F                db      03fh,0f0h    
     EA69 FFFFFFF0
7972 EA6A 40                db      040h,0cch    
     EA6B FFFFFFCC
7973 EA6C 41                db      041h,0a6h    
     EA6D FFFFFFA6
7974 EA6E 42                db      042h,000h    
     EA6F 00
7975 EA70 43                db      043h,0e6h    
     EA71 FFFFFFE6
7976 EA72 44                db      044h,000h    
     EA73 00
7977 EA74 45                db      045h,0b6h    
     EA75 FFFFFFB6
7978 EA76 46                db      046h,0c8h    
     EA77 FFFFFFC8
7979 EA78 47                db      047h,002h    
     EA79 02
7980 EA7A 48                db      048h,0fbh    
     EA7B FFFFFFFB
7981 EA7C 49                db      049h,0afh    
     EA7D FFFFFFAF
7982 EA7E 4A                db      04ah,000h    
     EA7F 00
7983 EA80 4B                db      04bh,002h    
     EA81 02
7984 EA82 4C                db      04ch,08fh    
     EA83 FFFFFF8F
7985 EA84 4D                db      04dh,0bfh    
     EA85 FFFFFFBF
7986 EA86 4E                db      04eh,000h    
     EA87 00
7987 EA88 4F                db      04fh,00fh    
     EA89 0F
7988 EA8A 50                db      050h,0e4h    
     EA8B FFFFFFE4
7989 EA8C 51                db      051h,0d4h    
     EA8D FFFFFFD4
7990 EA8E 52                db      052h,000h    
     EA8F 00
7991 EA90 53                db      053h,000h    
     EA91 00
7992 EA92 54                db      054h,0d3h    
     EA93 FFFFFFD3
7993 EA94 55                db      055h,0cdh    
     EA95 FFFFFFCD
7994 EA96 56                db      056h,000h    
     EA97 00
7995 EA98 57                db      057h,0bdh    
     EA99 FFFFFFBD
7996 EA9A 58                db      058h,04bh    
     EA9B 4B
7997 EA9C 59                db      059h,00fh    
     EA9D 0F
7998 EA9E 5A                db      05ah,0adh    
     EA9F FFFFFFAD
7999 EAA0 5B                db      05bh,058h    
     EAA1 58
8000 EAA2 5C                db      05ch,000h    
     EAA3 00
8001 EAA4 5D                db      05dh,0ffh    
     EAA5 FFFFFFFF
8002 EAA6 5E                db      05eh,0b6h    
     EAA7 FFFFFFB6
8003 EAA8 5F                db      05fh,0cbh    
     EAA9 FFFFFFCB
8004 EAAA 60                db      060h,0eah    
     EAAB FFFFFFEA
8005 EAAC 61                db      061h,079h    
     EAAD 79
8006 EAAE 62                db      062h,0d5h    
     EAAF FFFFFFD5
8007 EAB0 63                db      063h,063h    
     EAB1 63
8008 EAB2 64                db      064h,0e3h    
     EAB3 FFFFFFE3
8009 EAB4 65                db      065h,000h    
     EAB5 00
8010 EAB6 66                db      066h,0afh    
     EAB7 FFFFFFAF
8011 EAB8 67                db      067h,000h    
     EAB9 00
8012 EABA 68                db      068h,000h    
     EABB 00
8013 EABC 69                db      069h,0e7h    
     EABD FFFFFFE7
8014 EABE 6A                db      06ah,0d8h    
     EABF FFFFFFD8
8015 EAC0 6B                db      06bh,068h    
     EAC1 68
8016 EAC2 6C                db      06ch,000h    
     EAC3 00
8017 EAC4 6D                db      06dh,0b0h    
     EAC5 FFFFFFB0
8018 EAC6 6E                db      06eh,04bh    
     EAC7 4B
8019 EAC8 6F                db      06fh,094h    
     EAC9 FFFFFF94
8020 EACA 70                db      070h,0d6h    
     EACB FFFFFFD6
8021 EACC 71                db      071h,0ddh    
     EACD FFFFFFDD
8022 EACE 72                db      072h,057h    
     EACF 57
8023 EAD0 73                db      073h,002h    
     EAD1 02
8024 EAD2 74                db      074h,071h    
     EAD3 71
8025 EAD4 75                db      075h,0fbh    
     EAD5 FFFFFFFB
8026 EAD6 76                db      076h,003h    
     EAD7 03
8027 EAD8 77                db      077h,01fh    
     EAD9 1F
8028 EADA 78                db      078h,09ch    
     EADB FFFFFF9C
8029 EADC 79                db      079h,0cbh    
     EADD FFFFFFCB
8030 EADE 7A                db      07ah,084h    
     EADF FFFFFF84
8031 EAE0 7B                db      07bh,000h    
     EAE1 00
8032 EAE2 7C                db      07ch,000h    
     EAE3 00
8033 EAE4 7D                db      07dh,044h    
     EAE5 44
8034 EAE6 7E                db      07eh,08eh    
     EAE7 FFFFFF8E
8035 EAE8 7F                db      07fh,0a3h    
     EAE9 FFFFFFA3
8036 EAEA 00                db      000h,0a1h    
     EAEB FFFFFFA1
8037 EAEC 08                db      008h,000h    
     EAED 00
8038 EAEE 09                db      009h,092h    
     EAEF FFFFFF92
8039 EAF0 0A                db      00ah,0ech    
     EAF1 FFFFFFEC
8040 EAF2 0B                db      00bh,0fbh    
     EAF3 FFFFFFFB
8041 EAF4 0C                db      00ch,00fh    
     EAF5 0F
8042 EAF6 0D                db      00dh,016h    
     EAF7 16
8043 EAF8 0E                db      00eh,0d9h    
     EAF9 FFFFFFD9
8044 EAFA 0F                db      00fh,072h    
     EAFB 72
8045 EAFC 10                db      010h,002h    
     EAFD 02
8046 EAFE 11                db      011h,0e1h    
     EAFF FFFFFFE1
8047 EB00 12                db      012h,0e5h    
     EB01 FFFFFFE5
8048 EB02 13                db      013h,093h    
     EB03 FFFFFF93
8049 EB04 14                db      014h,0c9h    
     EB05 FFFFFFC9
8050 EB06 15                db      015h,0fbh    
     EB07 FFFFFFFB
8051 EB08 16                db      016h,066h    
     EB09 66
8052 EB0A 17                db      017h,0fbh    
     EB0B FFFFFFFB
8053 EB0C 18                db      018h,0afh    
     EB0D FFFFFFAF
8054 EB0E 19                db      019h,0d6h    
     EB0F FFFFFFD6
8055 EB10 1A                db      01ah,0efh    
     EB11 FFFFFFEF
8056 EB12 1B                db      01bh,000h    
     EB13 00
8057 EB14 1C                db      01ch,000h    
     EB15 00
8058 EB16 1D                db      01dh,052h    
     EB17 52
8059 EB18 1E                db      01eh,000h    
     EB19 00
8060 EB1A 1F                db      01fh,0ddh    
     EB1B FFFFFFDD
8061 EB1C 20                db      020h,07ch    
     EB1D 7C
8062 EB1E 21                db      021h,01ch    
     EB1F 1C
8063 EB20 22                db      022h,094h    
     EB21 FFFFFF94
8064 EB22 23                db      023h,0f2h    
     EB23 FFFFFFF2
8065 EB24 24                db      024h,07fh    
     EB25 7F
8066 EB26 25                db      025h,000h    
     EB27 00
8067 EB28 26                db      026h,019h    
     EB29 19
8068 EB2A 27                db      027h,0e0h    
     EB2B FFFFFFE0
8069 EB2C 28                db      028h,06fh    
     EB2D 6F
8070 EB2E 29                db      029h,0b7h    
     EB2F FFFFFFB7
8071 EB30 2A                db      02ah,002h    
     EB31 02
8072 EB32 2B                db      02bh,000h    
     EB33 00
8073 EB34 2C                db      02ch,0a2h    
     EB35 FFFFFFA2
8074 EB36 2D                db      02dh,0ceh    
     EB37 FFFFFFCE
8075 EB38 2E                db      02eh,002h    
     EB39 02
8076 EB3A 2F                db      02fh,069h    
     EB3B 69
8077 EB3C 30                db      030h,0b5h    
     EB3D FFFFFFB5
8078 EB3E 31                db      031h,0b0h    
     EB3F FFFFFFB0
8079 EB40 32                db      032h,0ddh    
     EB41 FFFFFFDD
8080 EB42 33                db      033h,069h    
     EB43 69
8081 EB44 34                db      034h,0c4h    
     EB45 FFFFFFC4
8082 EB46 35                db      035h,052h    
     EB47 52
8083 EB48 36                db      036h,0fbh    
     EB49 FFFFFFFB
8084 EB4A 37                db      037h,06bh    
     EB4B 6B
8085 EB4C 38                db      038h,04eh    
     EB4D 4E
8086 EB4E 39                db      039h,000h    
     EB4F 00
8087 EB50 3A                db      03ah,004h    
     EB51 04
8088 EB52 3B                db      03bh,07dh    
     EB53 7D
8089 EB54 3C                db      03ch,001h    
     EB55 01
8090 EB56 3D                db      03dh,0e9h    
     EB57 FFFFFFE9
8091 EB58 3E                db      03eh,0cdh    
     EB59 FFFFFFCD
8092 EB5A 3F                db      03fh,000h    
     EB5B 00
8093 EB5C 40                db      040h,018h    
     EB5D 18
8094 EB5E 41                db      041h,0d0h    
     EB5F FFFFFFD0
8095 EB60 42                db      042h,002h    
     EB61 02
8096 EB62 43                db      043h,05bh    
     EB63 5B
8097 EB64 44                db      044h,0b0h    
     EB65 FFFFFFB0
8098 EB66 45                db      045h,0f2h    
     EB67 FFFFFFF2
8099 EB68 46                db      046h,0cch    
     EB69 FFFFFFCC
8100 EB6A 47                db      047h,0aah    
     EB6B FFFFFFAA
8101 EB6C 48                db      048h,000h    
     EB6D 00
8102 EB6E 49                db      049h,0e7h    
     EB6F FFFFFFE7
8103 EB70 4A                db      04ah,000h    
     EB71 00
8104 EB72 4B                db      04bh,0ach    
     EB73 FFFFFFAC
8105 EB74 4C                db      04ch,0c8h    
     EB75 FFFFFFC8
8106 EB76 4D                db      04dh,044h    
     EB77 44
8107 EB78 4E                db      04eh,0fbh    
     EB79 FFFFFFFB
8108 EB7A 4F                db      04fh,0d2h    
     EB7B FFFFFFD2
8109 EB7C 50                db      050h,000h    
     EB7D 00
8110 EB7E 51                db      051h,090h    
     EB7F FFFFFF90
8111 EB80 52                db      052h,08fh    
     EB81 FFFFFF8F
8112 EB82 53                db      053h,0bfh    
     EB83 FFFFFFBF
8113 EB84 54                db      054h,000h    
     EB85 00
8114 EB86 55                db      055h,00fh    
     EB87 0F
8115 EB88 56                db      056h,0efh    
     EB89 FFFFFFEF
8116 EB8A 57                db      057h,0d4h    
     EB8B FFFFFFD4
8117 EB8C 58                db      058h,000h    
     EB8D 00
8118 EB8E 59                db      059h,000h    
     EB8F 00
8119 EB90 5A                db      05ah,0d7h    
     EB91 FFFFFFD7
8120 EB92 5B                db      05bh,0cdh    
     EB93 FFFFFFCD
8121 EB94 5C                db      05ch,093h    
     EB95 FFFFFF93
8122 EB96 5D                db      05dh,0bdh    
     EB97 FFFFFFBD
8123 EB98 5E                db      05eh,0fbh    
     EB99 FFFFFFFB
8124 EB9A 5F                db      05fh,00fh    
     EB9B 0F
8125 EB9C 60                db      060h,0aeh    
     EB9D FFFFFFAE
8126 EB9E 61                db      061h,058h    
     EB9F 58
8127 EBA0 62                db      062h,000h    
     EBA1 00
8128 EBA2 63                db      063h,0ffh    
     EBA3 FFFFFFFF
8129 EBA4 64                db      064h,000h    
     EBA5 00
8130 EBA6 65                db      065h,0cbh    
     EBA7 FFFFFFCB
8131 EBA8 66                db      066h,0ech    
     EBA9 FFFFFFEC
8132 EBAA 67                db      067h,079h    
     EBAB 79
8133 EBAC 68                db      068h,0d5h    
     EBAD FFFFFFD5
8134 EBAE 69                db      069h,063h    
     EBAF 63
8135 EBB0 6A                db      06ah,0e4h    
     EBB1 FFFFFFE4
8136 EBB2 6B                db      06bh,08eh    
     EBB3 FFFFFF8E
8137 EBB4 6C                db      06ch,0afh    
     EBB5 FFFFFFAF
8138 EBB6 6D                db      06dh,0fbh    
     EBB7 FFFFFFFB
8139 EBB8 6E                db      06eh,000h    
     EBB9 00
8140 EBBA 6F                db      06fh,0e2h    
     EBBB FFFFFFE2
8141 EBBC 70                db      070h,0bfh    
     EBBD FFFFFFBF
8142 EBBE 71                db      071h,021h    
     EBBF 21
8143 EBC0 72                db      072h,0d3h    
     EBC1 FFFFFFD3
8144 EBC2 73                db      073h,065h    
     EBC3 65
8145 EBC4 74                db      074h,0f1h    
     EBC5 FFFFFFF1
8146 EBC6 75                db      075h,090h    
     EBC7 FFFFFF90
8147 EBC8 76                db      076h,0c4h    
     EBC9 FFFFFFC4
8148 EBCA 77                db      077h,000h    
     EBCB 00
8149 EBCC 78                db      078h,00fh    
     EBCD 0F
8150 EBCE 79                db      079h,0e6h    
     EBCF FFFFFFE6
8151 EBD0 7A                db      07ah,0d6h    
     EBD1 FFFFFFD6
8152 EBD2 7B                db      07bh,000h    
     EBD3 00
8153 EBD4 7C                db      07ch,0b3h    
     EBD5 FFFFFFB3
8154 EBD6 7D                db      07dh,0d9h    
     EBD7 FFFFFFD9
8155 EBD8 7E                db      07eh,090h    
     EBD9 FFFFFF90
8156 EBDA 7F                db      07fh,099h    
     EBDB FFFFFF99
8157 EBDC 00                db      000h,0a2h    
     EBDD FFFFFFA2
8158 EBDE 08                db      008h,057h    
     EBDF 57
8159 EBE0 09                db      009h,021h    
     EBE1 21
8160 EBE2 0A                db      00ah,0b4h    
     EBE3 FFFFFFB4
8161 EBE4 0B                db      00bh,0afh    
     EBE5 FFFFFFAF
8162 EBE6 0C                db      00ch,0d5h    
     EBE7 FFFFFFD5
8163 EBE8 0D                db      00dh,078h    
     EBE9 78
8164 EBEA 0E                db      00eh,0b0h    
     EBEB FFFFFFB0
8165 EBEC 0F                db      00fh,043h    
     EBED 43
8166 EBEE 10                db      010h,002h    
     EBEF 02
8167 EBF0 11                db      011h,000h    
     EBF1 00
8168 EBF2 12                db      012h,0dbh    
     EBF3 FFFFFFDB
8169 EBF4 13                db      013h,000h    
     EBF5 00
8170 EBF6 14                db      014h,000h    
     EBF7 00
8171 EBF8 15                db      015h,043h    
     EBF9 43
8172 EBFA 16                db      016h,0ech    
     EBFB FFFFFFEC
8173 EBFC 17                db      017h,000h    
     EBFD 00
8174 EBFE 18                db      018h,00fh    
     EBFF 0F
8175 EC00 19                db      019h,017h    
     EC01 17
8176 EC02 1A                db      01ah,05bh    
     EC03 5B
8177 EC04 1B                db      01bh,071h    
     EC05 71
8178 EC06 1C                db      01ch,000h    
     EC07 00
8179 EC08 1D                db      01dh,0e0h    
     EC09 FFFFFFE0
8180 EC0A 1E                db      01eh,0f3h    
     EC0B FFFFFFF3
8181 EC0C 1F                db      01fh,09ah    
     EC0D FFFFFF9A
8182 EC0E 20                db      020h,0c8h    
     EC0F FFFFFFC8
8183 EC10 21                db      021h,0fbh    
     EC11 FFFFFFFB
8184 EC12 22                db      022h,001h    
     EC13 01
8185 EC14 23                db      023h,0b1h    
     EC15 FFFFFFB1
8186 EC16 24                db      024h,0b0h    
     EC17 FFFFFFB0
8187 EC18 25                db      025h,000h    
     EC19 00
8188 EC1A 26                db      026h,060h    
     EC1B 60
8189 EC1C 27                db      027h,0c3h    
     EC1D FFFFFFC3
8190 EC1E 28                db      028h,051h    
     EC1F 51
8191 EC20 29                db      029h,002h    
     EC21 02
8192 EC22 2A                db      02ah,005h    
     EC23 05
8193 EC24 2B                db      02bh,0deh    
     EC25 FFFFFFDE
8194 EC26 2C                db      02ch,07bh    
     EC27 7B
8195 EC28 2D                db      02dh,01ch    
     EC29 1C
8196 EC2A 2E                db      02eh,095h    
     EC2B FFFFFF95
8197 EC2C 2F                db      02fh,0f2h    
     EC2D FFFFFFF2
8198 EC2E 30                db      030h,07eh    
     EC2F 7E
8199 EC30 31                db      031h,06bh    
     EC31 6B
8200 EC32 32                db      032h,018h    
     EC33 18
8201 EC34 33                db      033h,0dch    
     EC35 FFFFFFDC
8202 EC36 34                db      034h,06eh    
     EC37 6E
8203 EC38 35                db      035h,0b7h    
     EC39 FFFFFFB7
8204 EC3A 36                db      036h,0fbh    
     EC3B FFFFFFFB
8205 EC3C 37                db      037h,0e6h    
     EC3D FFFFFFE6
8206 EC3E 38                db      038h,0fbh    
     EC3F FFFFFFFB
8207 EC40 39                db      039h,000h    
     EC41 00
8208 EC42 3A                db      03ah,000h    
     EC43 00
8209 EC44 3B                db      03bh,001h    
     EC45 01
8210 EC46 3C                db      03ch,0e5h    
     EC47 FFFFFFE5
8211 EC48 3D                db      03dh,0d4h    
     EC49 FFFFFFD4
8212 EC4A 3E                db      03eh,062h    
     EC4B 62
8213 EC4C 3F                db      03fh,0d5h    
     EC4D FFFFFFD5
8214 EC4E 40                db      040h,000h    
     EC4F 00
8215 EC50 41                db      041h,0f2h    
     EC51 FFFFFFF2
8216 EC52 42                db      042h,095h    
     EC53 FFFFFF95
8217 EC54 43                db      043h,0bbh    
     EC55 FFFFFFBB
8218 EC56 44                db      044h,002h    
     EC57 02
8219 EC58 45                db      045h,01ch    
     EC59 1C
8220 EC5A 46                db      046h,000h    
     EC5B 00
8221 EC5C 47                db      047h,058h    
     EC5D 58
8222 EC5E 48                db      048h,0b6h    
     EC5F FFFFFFB6
8223 EC60 49                db      049h,094h    
     EC61 FFFFFF94
8224 EC62 4A                db      04ah,0b0h    
     EC63 FFFFFFB0
8225 EC64 4B                db      04bh,021h    
     EC65 21
8226 EC66 4C                db      04ch,0c7h    
     EC67 FFFFFFC7
8227 EC68 4D                db      04dh,000h    
     EC69 00
8228 EC6A 4E                db      04eh,0d3h    
     EC6B FFFFFFD3
8229 EC6C 4F                db      04fh,066h    
     EC6D 66
8230 EC6E 50                db      050h,0f1h    
     EC6F FFFFFFF1
8231 EC70 51                db      051h,05bh    
     EC71 5B
8232 EC72 52                db      052h,0c4h    
     EC73 FFFFFFC4
8233 EC74 53                db      053h,000h    
     EC75 00
8234 EC76 54                db      054h,00fh    
     EC77 0F
8235 EC78 55                db      055h,0e3h    
     EC79 FFFFFFE3
8236 EC7A 56                db      056h,0d6h    
     EC7B FFFFFFD6
8237 EC7C 57                db      057h,071h    
     EC7D 71
8238 EC7E 58                db      058h,0b3h    
     EC7F FFFFFFB3
8239 EC80 59                db      059h,0d9h    
     EC81 FFFFFFD9
8240 EC82 5A                db      05ah,002h    
     EC83 02
8241 EC84 5B                db      05bh,098h    
     EC85 FFFFFF98
8242 EC86 5C                db      05ch,000h    
     EC87 00
8243 EC88 5D                db      05dh,057h    
     EC89 57
8244 EC8A 5E                db      05eh,021h    
     EC8B 21
8245 EC8C 5F                db      05fh,0b6h    
     EC8D FFFFFFB6
8246 EC8E 60                db      060h,0afh    
     EC8F FFFFFFAF
8247 EC90 61                db      061h,0d5h    
     EC91 FFFFFFD5
8248 EC92 62                db      062h,078h    
     EC93 78
8249 EC94 63                db      063h,0bdh    
     EC95 FFFFFFBD
8250 EC96 64                db      064h,043h    
     EC97 43
8251 EC98 65                db      065h,0fbh    
     EC99 FFFFFFFB
8252 EC9A 66                db      066h,000h    
     EC9B 00
8253 EC9C 67                db      067h,0b0h    
     EC9D FFFFFFB0
8254 EC9E 68                db      068h,000h    
     EC9F 00
8255 ECA0 69                db      069h,01bh    
     ECA1 1B
8256 ECA2 6A                db      06ah,043h    
     ECA3 43
8257 ECA4 6B                db      06bh,0eah    
     ECA5 FFFFFFEA
8258 ECA6 6C                db      06ch,005h    
     ECA7 05
8259 ECA8 6D                db      06dh,000h    
     ECA9 00
8260 ECAA 6E                db      06eh,017h    
     ECAB 17
8261 ECAC 6F                db      06fh,052h    
     ECAD 52
8262 ECAE 70                db      070h,06bh    
     ECAF 6B
8263 ECB0 71                db      071h,076h    
     ECB1 76
8264 ECB2 72                db      072h,04bh    
     ECB3 4B
8265 ECB4 73                db      073h,000h    
     ECB5 00
8266 ECB6 74                db      074h,0d9h    
     ECB7 FFFFFFD9
8267 ECB8 75                db      075h,077h    
     ECB9 77
8268 ECBA 76                db      076h,00fh    
     ECBB 0F
8269 ECBC 77                db      077h,093h    
     ECBD FFFFFF93
8270 ECBE 78                db      078h,0c7h    
     ECBF FFFFFFC7
8271 ECC0 79                db      079h,000h    
     ECC1 00
8272 ECC2 7A                db      07ah,001h    
     ECC3 01
8273 ECC4 7B                db      07bh,000h    
     ECC5 00
8274 ECC6 7C                db      07ch,0deh    
     ECC7 FFFFFFDE
8275 ECC8 7D                db      07dh,073h    
     ECC9 73
8276 ECCA 7E                db      07eh,002h    
     ECCB 02
8277 ECCC 7F                db      07fh,000h    
     ECCD 00
8278 ECCE 00                db      000h,0a3h    
     ECCF FFFFFFA3
8279 ECD0 08                db      008h,06ch    
     ECD1 6C
8280 ECD2 09                db      009h,03fh    
     ECD3 3F
8281 ECD4 0A                db      00ah,0cah    
     ECD5 FFFFFFCA
8282 ECD6 0B                db      00bh,0e8h    
     ECD7 FFFFFFE8
8283 ECD8 0C                db      00ch,078h    
     ECD9 78
8284 ECDA 0D                db      00dh,0d4h    
     ECDB FFFFFFD4
8285 ECDC 0E                db      00eh,060h    
     ECDD 60
8286 ECDE 0F                db      00fh,0e2h    
     ECDF FFFFFFE2
8287 ECE0 10                db      010h,091h    
     ECE1 FFFFFF91
8288 ECE2 11                db      011h,0c1h    
     ECE3 FFFFFFC1
8289 ECE4 12                db      012h,000h    
     ECE5 00
8290 ECE6 13                db      013h,067h    
     ECE7 67
8291 ECE8 14                db      014h,0e6h    
     ECE9 FFFFFFE6
8292 ECEA 15                db      015h,0d7h    
     ECEB FFFFFFD7
8293 ECEC 16                db      016h,087h    
     ECED FFFFFF87
8294 ECEE 17                db      017h,000h    
     ECEF 00
8295 ECF0 18                db      018h,0d6h    
     ECF1 FFFFFFD6
8296 ECF2 19                db      019h,0fbh    
     ECF3 FFFFFFFB
8297 ECF4 1A                db      01ah,094h    
     ECF5 FFFFFF94
8298 ECF6 1B                db      01bh,0bfh    
     ECF7 FFFFFFBF
8299 ECF8 1C                db      01ch,052h    
     ECF9 52
8300 ECFA 1D                db      01dh,001h    
     ECFB 01
8301 ECFC 1E                db      01eh,0b2h    
     ECFD FFFFFFB2
8302 ECFE 1F                db      01fh,03fh    
     ECFF 3F
8303 ED00 20                db      020h,0d1h    
     ED01 FFFFFFD1
8304 ED02 21                db      021h,04ah    
     ED03 4A
8305 ED04 22                db      022h,0bah    
     ED05 FFFFFFBA
8306 ED06 23                db      023h,048h    
     ED07 48
8307 ED08 24                db      024h,0eeh    
     ED09 FFFFFFEE
8308 ED0A 25                db      025h,000h    
     ED0B 00
8309 ED0C 26                db      026h,0d8h    
     ED0D FFFFFFD8
8310 ED0E 27                db      027h,062h    
     ED0F 62
8311 ED10 28                db      028h,0e5h    
     ED11 FFFFFFE5
8312 ED12 29                db      029h,000h    
     ED13 00
8313 ED14 2A                db      02ah,0bbh    
     ED15 FFFFFFBB
8314 ED16 2B                db      02bh,005h    
     ED17 05
8315 ED18 2C                db      02ch,001h    
     ED19 01
8316 ED1A 2D                db      02dh,0e5h    
     ED1B FFFFFFE5
8317 ED1C 2E                db      02eh,0fbh    
     ED1D FFFFFFFB
8318 ED1E 2F                db      02fh,06bh    
     ED1F 6B
8319 ED20 30                db      030h,000h    
     ED21 00
8320 ED22 31                db      031h,0ddh    
     ED23 FFFFFFDD
8321 ED24 32                db      032h,002h    
     ED25 02
8322 ED26 33                db      033h,097h    
     ED27 FFFFFF97
8323 ED28 34                db      034h,0afh    
     ED29 FFFFFFAF
8324 ED2A 35                db      035h,0fbh    
     ED2B FFFFFFFB
8325 ED2C 36                db      036h,000h    
     ED2D 00
8326 ED2E 37                db      037h,0b4h    
     ED2F FFFFFFB4
8327 ED30 38                db      038h,056h    
     ED31 56
8328 ED32 39                db      039h,085h    
     ED33 FFFFFF85
8329 ED34 3A                db      03ah,044h    
     ED35 44
8330 ED36 3B                db      03bh,08eh    
     ED37 FFFFFF8E
8331 ED38 3C                db      03ch,0a3h    
     ED39 FFFFFFA3
8332 ED3A 3D                db      03dh,0dfh    
     ED3B FFFFFFDF
8333 ED3C 3E                db      03eh,0fbh    
     ED3D FFFFFFFB
8334 ED3E 3F                db      03fh,0a3h    
     ED3F FFFFFFA3
8335 ED40 40                db      040h,000h    
     ED41 00
8336 ED42 41                db      041h,0e4h    
     ED43 FFFFFFE4
8337 ED44 42                db      042h,001h    
     ED45 01
8338 ED46 43                db      043h,0b7h    
     ED47 FFFFFFB7
8339 ED48 44                db      044h,0c1h    
     ED49 FFFFFFC1
8340 ED4A 45                db      045h,000h    
     ED4B 00
8341 ED4C 46                db      046h,0d6h    
     ED4D FFFFFFD6
8342 ED4E 47                db      047h,0ceh    
     ED4F FFFFFFCE
8343 ED50 48                db      048h,000h    
     ED51 00
8344 ED52 49                db      049h,002h    
     ED53 02
8345 ED54 4A                db      04ah,086h    
     ED55 FFFFFF86
8346 ED56 4B                db      04bh,000h    
     ED57 00
8347 ED58 4C                db      04ch,000h    
     ED59 00
8348 ED5A 4D                db      04dh,001h    
     ED5B 01
8349 ED5C 4E                db      04eh,0ebh    
     ED5D FFFFFFEB
8350 ED5E 4F                db      04fh,0afh    
     ED5F FFFFFFAF
8351 ED60 50                db      050h,087h    
     ED61 FFFFFF87
8352 ED62 51                db      051h,019h    
     ED63 19
8353 ED64 52                db      052h,0d4h    
     ED65 FFFFFFD4
8354 ED66 53                db      053h,057h    
     ED67 57
8355 ED68 54                db      054h,05bh    
     ED69 5B
8356 ED6A 55                db      055h,0afh    
     ED6B FFFFFFAF
8357 ED6C 56                db      056h,0f2h    
     ED6D FFFFFFF2
8358 ED6E 57                db      057h,01ah    
     ED6F 1A
8359 ED70 58                db      058h,0aah    
     ED71 FFFFFFAA
8360 ED72 59                db      059h,002h    
     ED73 02
8361 ED74 5A                db      05ah,0e7h    
     ED75 FFFFFFE7
8362 ED76 5B                db      05bh,00fh    
     ED77 0F
8363 ED78 5C                db      05ch,0ach    
     ED79 FFFFFFAC
8364 ED7A 5D                db      05dh,0c9h    
     ED7B FFFFFFC9
8365 ED7C 5E                db      05eh,044h    
     ED7D 44
8366 ED7E 5F                db      05fh,002h    
     ED7F 02
8367 ED80 60                db      060h,0d2h    
     ED81 FFFFFFD2
8368 ED82 61                db      061h,05fh    
     ED83 5F
8369 ED84 62                db      062h,090h    
     ED85 FFFFFF90
8370 ED86 63                db      063h,074h    
     ED87 74
8371 ED88 64                db      064h,0c2h    
     ED89 FFFFFFC2
8372 ED8A 65                db      065h,000h    
     ED8B 00
8373 ED8C 66                db      066h,00fh    
     ED8D 0F
8374 ED8E 67                db      067h,0f1h    
     ED8F FFFFFFF1
8375 ED90 68                db      068h,0d5h    
     ED91 FFFFFFD5
8376 ED92 69                db      069h,000h    
     ED93 00
8377 ED94 6A                db      06ah,001h    
     ED95 01
8378 ED96 6B                db      06bh,0d8h    
     ED97 FFFFFFD8
8379 ED98 6C                db      06ch,0eeh    
     ED99 FFFFFFEE
8380 ED9A 6D                db      06dh,093h    
     ED9B FFFFFF93
8381 ED9C 6E                db      06eh,0b0h    
     ED9D FFFFFFB0
8382 ED9E 6F                db      06fh,0fbh    
     ED9F FFFFFFFB
8383 EDA0 70                db      070h,0d4h    
     EDA1 FFFFFFD4
8384 EDA2 71                db      071h,001h    
     EDA3 01
8385 EDA4 72                db      072h,000h    
     EDA5 00
8386 EDA6 73                db      073h,0ffh    
     EDA7 FFFFFFFF
8387 EDA8 74                db      074h,000h    
     EDA9 00
8388 EDAA 75                db      075h,0cbh    
     EDAB FFFFFFCB
8389 EDAC 76                db      076h,0ech    
     EDAD FFFFFFEC
8390 EDAE 77                db      077h,079h    
     EDAF 79
8391 EDB0 78                db      078h,0d5h    
     EDB1 FFFFFFD5
8392 EDB2 79                db      079h,063h    
     EDB3 63
8393 EDB4 7A                db      07ah,0e4h    
     EDB5 FFFFFFE4
8394 EDB6 7B                db      07bh,08eh    
     EDB7 FFFFFF8E
8395 EDB8 7C                db      07ch,0afh    
     EDB9 FFFFFFAF
8396 EDBA 7D                db      07dh,0fbh    
     EDBB FFFFFFFB
8397 EDBC 7E                db      07eh,000h    
     EDBD 00
8398 EDBE 7F                db      07fh,0e2h    
     EDBF FFFFFFE2
8399 EDC0 00                db      000h,0a4h    
     EDC1 FFFFFFA4
8400 EDC2 08                db      008h,06fh    
     EDC3 6F
8401 EDC4 09                db      009h,000h    
     EDC5 00
8402 EDC6 0A                db      00ah,002h    
     EDC7 02
8403 EDC8 0B                db      00bh,0e3h    
     EDC9 FFFFFFE3
8404 EDCA 0C                db      00ch,00fh    
     EDCB 0F
8405 EDCC 0D                db      00dh,058h    
     EDCD 58
8406 EDCE 0E                db      00eh,000h    
     EDCF 00
8407 EDD0 0F                db      00fh,000h    
     EDD1 00
8408 EDD2 10                db      010h,000h    
     EDD3 00
8409 EDD4 11                db      011h,0cbh    
     EDD5 FFFFFFCB
8410 EDD6 12                db      012h,059h    
     EDD7 59
8411 EDD8 13                db      013h,002h    
     EDD9 02
8412 EDDA 14                db      014h,000h    
     EDDB 00
8413 EDDC 15                db      015h,0b6h    
     EDDD FFFFFFB6
8414 EDDE 16                db      016h,07dh    
     EDDF 7D
8415 EDE0 17                db      017h,001h    
     EDE1 01
8416 EDE2 18                db      018h,09fh    
     EDE3 FFFFFF9F
8417 EDE4 19                db      019h,008h    
     EDE5 08
8418 EDE6 1A                db      01ah,000h    
     EDE7 00
8419 EDE8 1B                db      01bh,001h    
     EDE9 01
8420 EDEA 1C                db      01ch,0d0h    
     EDEB FFFFFFD0
8421 EDEC 1D                db      01dh,002h    
     EDED 02
8422 EDEE 1E                db      01eh,05ch    
     EDEF 5C
8423 EDF0 1F                db      01fh,000h    
     EDF1 00
8424 EDF2 20                db      020h,0f0h    
     EDF3 FFFFFFF0
8425 EDF4 21                db      021h,069h    
     EDF5 69
8426 EDF6 22                db      022h,0a6h    
     EDF7 FFFFFFA6
8427 EDF8 23                db      023h,000h    
     EDF9 00
8428 EDFA 24                db      024h,0e6h    
     EDFB FFFFFFE6
8429 EDFC 25                db      025h,000h    
     EDFD 00
8430 EDFE 26                db      026h,0b6h    
     EDFF FFFFFFB6
8431 EE00 27                db      027h,0c4h    
     EE01 FFFFFFC4
8432 EE02 28                db      028h,002h    
     EE03 02
8433 EE04 29                db      029h,0fbh    
     EE05 FFFFFFFB
8434 EE06 2A                db      02ah,0afh    
     EE07 FFFFFFAF
8435 EE08 2B                db      02bh,043h    
     EE09 43
8436 EE0A 2C                db      02ch,002h    
     EE0B 02
8437 EE0C 2D                db      02dh,074h    
     EE0D 74
8438 EE0E 2E                db      02eh,0bfh    
     EE0F FFFFFFBF
8439 EE10 2F                db      02fh,006h    
     EE11 06
8440 EE12 30                db      030h,00fh    
     EE13 0F
8441 EE14 31                db      031h,0e4h    
     EE15 FFFFFFE4
8442 EE16 32                db      032h,0d0h    
     EE17 FFFFFFD0
8443 EE18 33                db      033h,000h    
     EE19 00
8444 EE1A 34                db      034h,0ffh    
     EE1B FFFFFFFF
8445 EE1C 35                db      035h,0d3h    
     EE1D FFFFFFD3
8446 EE1E 36                db      036h,0c7h    
     EE1F FFFFFFC7
8447 EE20 37                db      037h,000h    
     EE21 00
8448 EE22 38                db      038h,0beh    
     EE23 FFFFFFBE
8449 EE24 39                db      039h,0ech    
     EE25 FFFFFFEC
8450 EE26 3A                db      03ah,000h    
     EE27 00
8451 EE28 3B                db      03bh,0deh    
     EE29 FFFFFFDE
8452 EE2A 3C                db      03ch,073h    
     EE2B 73
8453 EE2C 3D                db      03dh,0b5h    
     EE2D FFFFFFB5
8454 EE2E 3E                db      03eh,000h    
     EE2F 00
8455 EE30 3F                db      03fh,0e2h    
     EE31 FFFFFFE2
8456 EE32 40                db      040h,09eh    
     EE33 FFFFFF9E
8457 EE34 41                db      041h,0c7h    
     EE35 FFFFFFC7
8458 EE36 42                db      042h,002h    
     EE37 02
8459 EE38 43                db      043h,00fh    
     EE39 0F
8460 EE3A 44                db      044h,002h    
     EE3B 02
8461 EE3C 45                db      045h,0b8h    
     EE3D FFFFFFB8
8462 EE3E 46                db      046h,0dbh    
     EE3F FFFFFFDB
8463 EE40 47                db      047h,012h    
     EE41 12
8464 EE42 48                db      048h,0c1h    
     EE43 FFFFFFC1
8465 EE44 49                db      049h,04fh    
     EE45 4F
8466 EE46 4A                db      04ah,0fbh    
     EE47 FFFFFFFB
8467 EE48 4B                db      04bh,000h    
     EE49 00
8468 EE4A 4C                db      04ch,0e0h    
     EE4B FFFFFFE0
8469 EE4C 4D                db      04dh,000h    
     EE4D 00
8470 EE4E 4E                db      04eh,000h    
     EE4F 00
8471 EE50 4F                db      04fh,098h    
     EE51 FFFFFF98
8472 EE52 50                db      050h,002h    
     EE53 02
8473 EE54 51                db      051h,082h    
     EE55 FFFFFF82
8474 EE56 52                db      052h,00fh    
     EE57 0F
8475 EE58 53                db      053h,023h    
     EE59 23
8476 EE5A 54                db      054h,000h    
     EE5B 00
8477 EE5C 55                db      055h,08fh    
     EE5D FFFFFF8F
8478 EE5E 56                db      056h,09ah    
     EE5F FFFFFF9A
8479 EE60 57                db      057h,044h    
     EE61 44
8480 EE62 58                db      058h,019h    
     EE63 19
8481 EE64 59                db      059h,0a1h    
     EE65 FFFFFFA1
8482 EE66 5A                db      05ah,0d6h    
     EE67 FFFFFFD6
8483 EE68 5B                db      05bh,090h    
     EE69 FFFFFF90
8484 EE6A 5C                db      05ch,0fbh    
     EE6B FFFFFFFB
8485 EE6C 5D                db      05dh,000h    
     EE6D 00
8486 EE6E 5E                db      05eh,0bbh    
     EE6F FFFFFFBB
8487 EE70 5F                db      05fh,0deh    
     EE71 FFFFFFDE
8488 EE72 60                db      060h,001h    
     EE73 01
8489 EE74 61                db      061h,0c9h    
     EE75 FFFFFFC9
8490 EE76 62                db      062h,056h    
     EE77 56
8491 EE78 63                db      063h,002h    
     EE79 02
8492 EE7A 64                db      064h,07fh    
     EE7B 7F
8493 EE7C 65                db      065h,0fbh    
     EE7D FFFFFFFB
8494 EE7E 66                db      066h,003h    
     EE7F 03
8495 EE80 67                db      067h,01fh    
     EE81 1F
8496 EE82 68                db      068h,09ch    
     EE83 FFFFFF9C
8497 EE84 69                db      069h,0cbh    
     EE85 FFFFFFCB
8498 EE86 6A                db      06ah,084h    
     EE87 FFFFFF84
8499 EE88 6B                db      06bh,000h    
     EE89 00
8500 EE8A 6C                db      06ch,000h    
     EE8B 00
8501 EE8C 6D                db      06dh,002h    
     EE8D 02
8502 EE8E 6E                db      06eh,08eh    
     EE8F FFFFFF8E
8503 EE90 6F                db      06fh,0a3h    
     EE91 FFFFFFA3
8504 EE92 70                db      070h,0ceh    
     EE93 FFFFFFCE
8505 EE94 71                db      071h,0cch    
     EE95 FFFFFFCC
8506 EE96 72                db      072h,0e3h    
     EE97 FFFFFFE3
8507 EE98 73                db      073h,00fh    
     EE99 0F
8508 EE9A 74                db      074h,058h    
     EE9B 58
8509 EE9C 75                db      075h,000h    
     EE9D 00
8510 EE9E 76                db      076h,000h    
     EE9F 00
8511 EEA0 77                db      077h,0beh    
     EEA1 FFFFFFBE
8512 EEA2 78                db      078h,0cbh    
     EEA3 FFFFFFCB
8513 EEA4 79                db      079h,05ah    
     EEA5 5A
8514 EEA6 7A                db      07ah,002h    
     EEA7 02
8515 EEA8 7B                db      07bh,000h    
     EEA9 00
8516 EEAA 7C                db      07ch,0b6h    
     EEAB FFFFFFB6
8517 EEAC 7D                db      07dh,07dh    
     EEAD 7D
8518 EEAE 7E                db      07eh,001h    
     EEAF 01
8519 EEB0 7F                db      07fh,09dh    
     EEB1 FFFFFF9D
8520 EEB2 00                db      000h,0a5h    
     EEB3 FFFFFFA5
8521 EEB4 08                db      008h,0fbh    
     EEB5 FFFFFFFB
8522 EEB6 09                db      009h,0cdh    
     EEB7 FFFFFFCD
8523 EEB8 0A                db      00ah,043h    
     EEB9 43
8524 EEBA 0B                db      00bh,002h    
     EEBB 02
8525 EEBC 0C                db      00ch,074h    
     EEBD 74
8526 EEBE 0D                db      00dh,0beh    
     EEBF FFFFFFBE
8527 EEC0 0E                db      00eh,006h    
     EEC1 06
8528 EEC2 0F                db      00fh,000h    
     EEC3 00
8529 EEC4 10                db      010h,0e4h    
     EEC5 FFFFFFE4
8530 EEC6 11                db      011h,0d0h    
     EEC7 FFFFFFD0
8531 EEC8 12                db      012h,000h    
     EEC9 00
8532 EECA 13                db      013h,0ffh    
     EECB FFFFFFFF
8533 EECC 14                db      014h,0d3h    
     EECD FFFFFFD3
8534 EECE 15                db      015h,0c7h    
     EECF FFFFFFC7
8535 EED0 16                db      016h,000h    
     EED1 00
8536 EED2 17                db      017h,0bch    
     EED3 FFFFFFBC
8537 EED4 18                db      018h,04bh    
     EED5 4B
8538 EED6 19                db      019h,00fh    
     EED7 0F
8539 EED8 1A                db      01ah,0a9h    
     EED9 FFFFFFA9
8540 EEDA 1B                db      01bh,000h    
     EEDB 00
8541 EEDC 1C                db      01ch,0cfh    
     EEDD FFFFFFCF
8542 EEDE 1D                db      01dh,06ch    
     EEDF 6C
8543 EEE0 1E                db      01eh,03fh    
     EEE1 3F
8544 EEE2 1F                db      01fh,0cah    
     EEE3 FFFFFFCA
8545 EEE4 20                db      020h,0e8h    
     EEE5 FFFFFFE8
8546 EEE6 21                db      021h,078h    
     EEE7 78
8547 EEE8 22                db      022h,0d4h    
     EEE9 FFFFFFD4
8548 EEEA 23                db      023h,061h    
     EEEB 61
8549 EEEC 24                db      024h,0e2h    
     EEED FFFFFFE2
8550 EEEE 25                db      025h,000h    
     EEEF 00
8551 EEF0 26                db      026h,0c1h    
     EEF1 FFFFFFC1
8552 EEF2 27                db      027h,000h    
     EEF3 00
8553 EEF4 28                db      028h,067h    
     EEF5 67
8554 EEF6 29                db      029h,0e7h    
     EEF7 FFFFFFE7
8555 EEF8 2A                db      02ah,0d7h    
     EEF9 FFFFFFD7
8556 EEFA 2B                db      02bh,087h    
     EEFB FFFFFF87
8557 EEFC 2C                db      02ch,000h    
     EEFD 00
8558 EEFE 2D                db      02dh,0b0h    
     EEFF FFFFFFB0
8559 EF00 2E                db      02eh,002h    
     EF01 02
8560 EF02 2F                db      02fh,094h    
     EF03 FFFFFF94
8561 EF04 30                db      030h,0bfh    
     EF05 FFFFFFBF
8562 EF06 31                db      031h,0fbh    
     EF07 FFFFFFFB
8563 EF08 32                db      032h,001h    
     EF09 01
8564 EF0A 33                db      033h,0b2h    
     EF0B FFFFFFB2
8565 EF0C 34                db      034h,03fh    
     EF0D 3F
8566 EF0E 35                db      035h,0d0h    
     EF0F FFFFFFD0
8567 EF10 36                db      036h,04ah    
     EF11 4A
8568 EF12 37                db      037h,0bah    
     EF13 FFFFFFBA
8569 EF14 38                db      038h,0fbh    
     EF15 FFFFFFFB
8570 EF16 39                db      039h,0e6h    
     EF17 FFFFFFE6
8571 EF18 3A                db      03ah,090h    
     EF19 FFFFFF90
8572 EF1A 3B                db      03bh,0fbh    
     EF1B FFFFFFFB
8573 EF1C 3C                db      03ch,000h    
     EF1D 00
8574 EF1E 3D                db      03dh,0bbh    
     EF1F FFFFFFBB
8575 EF20 3E                db      03eh,0deh    
     EF21 FFFFFFDE
8576 EF22 3F                db      03fh,001h    
     EF23 01
8577 EF24 40                db      040h,0c9h    
     EF25 FFFFFFC9
8578 EF26 41                db      041h,056h    
     EF27 56
8579 EF28 42                db      042h,002h    
     EF29 02
8580 EF2A 43                db      043h,071h    
     EF2B 71
8581 EF2C 44                db      044h,0fbh    
     EF2D FFFFFFFB
8582 EF2E 45                db      045h,003h    
     EF2F 03
8583 EF30 46                db      046h,01fh    
     EF31 1F
8584 EF32 47                db      047h,09ch    
     EF33 FFFFFF9C
8585 EF34 48                db      048h,0cbh    
     EF35 FFFFFFCB
8586 EF36 49                db      049h,084h    
     EF37 FFFFFF84
8587 EF38 4A                db      04ah,000h    
     EF39 00
8588 EF3A 4B                db      04bh,000h    
     EF3B 00
8589 EF3C 4C                db      04ch,002h    
     EF3D 02
8590 EF3E 4D                db      04dh,08eh    
     EF3F FFFFFF8E
8591 EF40 4E                db      04eh,0a3h    
     EF41 FFFFFFA3
8592 EF42 4F                db      04fh,0ech    
     EF43 FFFFFFEC
8593 EF44 50                db      050h,0cch    
     EF45 FFFFFFCC
8594 EF46 51                db      051h,0a3h    
     EF47 FFFFFFA3
8595 EF48 52                db      052h,0b3h    
     EF49 FFFFFFB3
8596 EF4A 53                db      053h,0e4h    
     EF4B FFFFFFE4
8597 EF4C 54                db      054h,00fh    
     EF4D 0F
8598 EF4E 55                db      055h,0b7h    
     EF4F FFFFFFB7
8599 EF50 56                db      056h,000h    
     EF51 00
8600 EF52 57                db      057h,000h    
     EF53 00
8601 EF54 58                db      058h,0beh    
     EF55 FFFFFFBE
8602 EF56 59                db      059h,0ceh    
     EF57 FFFFFFCE
8603 EF58 5A                db      05ah,05ah    
     EF59 5A
8604 EF5A 5B                db      05bh,002h    
     EF5B 02
8605 EF5C 5C                db      05ch,071h    
     EF5D 71
8606 EF5E 5D                db      05dh,000h    
     EF5F 00
8607 EF60 5E                db      05eh,07dh    
     EF61 7D
8608 EF62 5F                db      05fh,001h    
     EF63 01
8609 EF64 60                db      060h,0e9h    
     EF65 FFFFFFE9
8610 EF66 61                db      061h,0afh    
     EF67 FFFFFFAF
8611 EF68 62                db      062h,000h    
     EF69 00
8612 EF6A 63                db      063h,018h    
     EF6B 18
8613 EF6C 64                db      064h,0d0h    
     EF6D FFFFFFD0
8614 EF6E 65                db      065h,002h    
     EF6F 02
8615 EF70 66                db      066h,05bh    
     EF71 5B
8616 EF72 67                db      067h,0afh    
     EF73 FFFFFFAF
8617 EF74 68                db      068h,0f2h    
     EF75 FFFFFFF2
8618 EF76 69                db      069h,0cch    
     EF77 FFFFFFCC
8619 EF78 6A                db      06ah,0aah    
     EF79 FFFFFFAA
8620 EF7A 6B                db      06bh,000h    
     EF7B 00
8621 EF7C 6C                db      06ch,0e7h    
     EF7D FFFFFFE7
8622 EF7E 6D                db      06dh,000h    
     EF7F 00
8623 EF80 6E                db      06eh,0ach    
     EF81 FFFFFFAC
8624 EF82 6F                db      06fh,0c8h    
     EF83 FFFFFFC8
8625 EF84 70                db      070h,0d1h    
     EF85 FFFFFFD1
8626 EF86 71                db      071h,0d4h    
     EF87 FFFFFFD4
8627 EF88 72                db      072h,094h    
     EF89 FFFFFF94
8628 EF8A 73                db      073h,0f2h    
     EF8B FFFFFFF2
8629 EF8C 74                db      074h,07fh    
     EF8D 7F
8630 EF8E 75                db      075h,000h    
     EF8F 00
8631 EF90 76                db      076h,019h    
     EF91 19
8632 EF92 77                db      077h,0e0h    
     EF93 FFFFFFE0
8633 EF94 78                db      078h,06fh    
     EF95 6F
8634 EF96 79                db      079h,0b7h    
     EF97 FFFFFFB7
8635 EF98 7A                db      07ah,002h    
     EF99 02
8636 EF9A 7B                db      07bh,0e3h    
     EF9B FFFFFFE3
8637 EF9C 7C                db      07ch,0a2h    
     EF9D FFFFFFA2
8638 EF9E 7D                db      07dh,0ceh    
     EF9F FFFFFFCE
8639 EFA0 7E                db      07eh,002h    
     EFA1 02
8640 EFA2 7F                db      07fh,069h    
     EFA3 69
8641 EFA4 00                db      000h,0a6h    
     EFA5 FFFFFFA6
8642 EFA6 08                db      008h,0d6h    
     EFA7 FFFFFFD6
8643 EFA8 09                db      009h,090h    
     EFA9 FFFFFF90
8644 EFAA 0A                db      00ah,0d0h    
     EFAB FFFFFFD0
8645 EFAC 0B                db      00bh,05fh    
     EFAD 5F
8646 EFAE 0C                db      00ch,0edh    
     EFAF FFFFFFED
8647 EFB0 0D                db      00dh,08eh    
     EFB1 FFFFFF8E
8648 EFB2 0E                db      00eh,000h    
     EFB3 00
8649 EFB4 0F                db      00fh,000h    
     EFB5 00
8650 EFB6 10                db      010h,066h    
     EFB7 66
8651 EFB8 11                db      011h,0e5h    
     EFB9 FFFFFFE5
8652 EFBA 12                db      012h,0d3h    
     EFBB FFFFFFD3
8653 EFBC 13                db      013h,062h    
     EFBD 62
8654 EFBE 14                db      014h,000h    
     EFBF 00
8655 EFC0 15                db      015h,000h    
     EFC1 00
8656 EFC2 16                db      016h,0fbh    
     EFC3 FFFFFFFB
8657 EFC4 17                db      017h,095h    
     EFC5 FFFFFF95
8658 EFC6 18                db      018h,0beh    
     EFC7 FFFFFFBE
8659 EFC8 19                db      019h,002h    
     EFC9 02
8660 EFCA 1A                db      01ah,00fh    
     EFCB 0F
8661 EFCC 1B                db      01bh,0ach    
     EFCD FFFFFFAC
8662 EFCE 1C                db      01ch,09ah    
     EFCF FFFFFF9A
8663 EFD0 1D                db      01dh,0d2h    
     EFD1 FFFFFFD2
8664 EFD2 1E                db      01eh,0e7h    
     EFD3 FFFFFFE7
8665 EFD4 1F                db      01fh,0afh    
     EFD5 FFFFFFAF
8666 EFD6 20                db      020h,048h    
     EFD7 48
8667 EFD8 21                db      021h,0cdh    
     EFD9 FFFFFFCD
8668 EFDA 22                db      022h,000h    
     EFDB 00
8669 EFDC 23                db      023h,0d7h    
     EFDD FFFFFFD7
8670 EFDE 24                db      024h,062h    
     EFDF 62
8671 EFE0 25                db      025h,0f3h    
     EFE1 FFFFFFF3
8672 EFE2 26                db      026h,05bh    
     EFE3 5B
8673 EFE4 27                db      027h,0c8h    
     EFE5 FFFFFFC8
8674 EFE6 28                db      028h,000h    
     EFE7 00
8675 EFE8 29                db      029h,001h    
     EFE9 01
8676 EFEA 2A                db      02ah,0e3h    
     EFEB FFFFFFE3
8677 EFEC 2B                db      02bh,0b0h    
     EFED FFFFFFB0
8678 EFEE 2C                db      02ch,071h    
     EFEF 71
8679 EFF0 2D                db      02dh,000h    
     EFF1 00
8680 EFF2 2E                db      02eh,0d9h    
     EFF3 FFFFFFD9
8681 EFF4 2F                db      02fh,0ebh    
     EFF5 FFFFFFEB
8682 EFF6 30                db      030h,098h    
     EFF7 FFFFFF98
8683 EFF8 31                db      031h,0c1h    
     EFF9 FFFFFFC1
8684 EFFA 32                db      032h,057h    
     EFFB 57
8685 EFFC 33                db      033h,000h    
     EFFD 00
8686 EFFE 34                db      034h,0b4h    
     EFFF FFFFFFB4
8687 F000 35                db      035h,0a3h    
     F001 FFFFFFA3
8688 F002 36                db      036h,0d5h    
     F003 FFFFFFD5
8689 F004 37                db      037h,041h    
     F005 41
8690 F006 38                db      038h,09bh    
     F007 FFFFFF9B
8691 F008 39                db      039h,0b0h    
     F009 FFFFFFB0
8692 F00A 3A                db      03ah,000h    
     F00B 00
8693 F00C 3B                db      03bh,0b0h    
     F00D FFFFFFB0
8694 F00E 3C                db      03ch,000h    
     F00F 00
8695 F010 3D                db      03dh,01bh    
     F011 1B
8696 F012 3E                db      03eh,05ch    
     F013 5C
8697 F014 3F                db      03fh,0eah    
     F015 FFFFFFEA
8698 F016 40                db      040h,002h    
     F017 02
8699 F018 41                db      041h,000h    
     F019 00
8700 F01A 42                db      042h,000h    
     F01B 00
8701 F01C 43                db      043h,052h    
     F01D 52
8702 F01E 44                db      044h,070h    
     F01F 70
8703 F020 45                db      045h,000h    
     F021 00
8704 F022 46                db      046h,0dch    
     F023 FFFFFFDC
8705 F024 47                db      047h,0f3h    
     F025 FFFFFFF3
8706 F026 48                db      048h,000h    
     F027 00
8707 F028 49                db      049h,0c8h    
     F029 FFFFFFC8
8708 F02A 4A                db      04ah,069h    
     F02B 69
8709 F02C 4B                db      04bh,001h    
     F02D 01
8710 F02E 4C                db      04ch,0b6h    
     F02F FFFFFFB6
8711 F030 4D                db      04dh,0b0h    
     F031 FFFFFFB0
8712 F032 4E                db      04eh,000h    
     F033 00
8713 F034 4F                db      04fh,060h    
     F035 60
8714 F036 50                db      050h,0c2h    
     F037 FFFFFFC2
8715 F038 51                db      051h,051h    
     F039 51
8716 F03A 52                db      052h,002h    
     F03B 02
8717 F03C 53                db      053h,000h    
     F03D 00
8718 F03E 54                db      054h,0deh    
     F03F FFFFFFDE
8719 F040 55                db      055h,079h    
     F041 79
8720 F042 56                db      056h,001h    
     F043 01
8721 F044 57                db      057h,096h    
     F045 FFFFFF96
8722 F046 58                db      058h,0f0h    
     F047 FFFFFFF0
8723 F048 59                db      059h,07eh    
     F049 7E
8724 F04A 5A                db      05ah,06bh    
     F04B 6B
8725 F04C 5B                db      05bh,019h    
     F04D 19
8726 F04E 5C                db      05ch,0dch    
     F04F FFFFFFDC
8727 F050 5D                db      05dh,076h    
     F051 76
8728 F052 5E                db      05eh,058h    
     F053 58
8729 F054 5F                db      05fh,0fbh    
     F055 FFFFFFFB
8730 F056 60                db      060h,0e6h    
     F057 FFFFFFE6
8731 F058 61                db      061h,09dh    
     F059 FFFFFF9D
8732 F05A 62                db      062h,0cbh    
     F05B FFFFFFCB
8733 F05C 63                db      063h,0fbh    
     F05D FFFFFFFB
8734 F05E 64                db      064h,068h    
     F05F 68
8735 F060 65                db      065h,002h    
     F061 02
8736 F062 66                db      066h,0bdh    
     F063 FFFFFFBD
8737 F064 67                db      067h,0d9h    
     F065 FFFFFFD9
8738 F066 68                db      068h,09dh    
     F067 FFFFFF9D
8739 F068 69                db      069h,0c6h    
     F069 FFFFFFC6
8740 F06A 6A                db      06ah,053h    
     F06B 53
8741 F06C 6B                db      06bh,002h    
     F06D 02
8742 F06E 6C                db      06ch,000h    
     F06F 00
8743 F070 6D                db      06dh,000h    
     F071 00
8744 F072 6E                db      06eh,07ah    
     F073 7A
8745 F074 6F                db      06fh,00fh    
     F075 0F
8746 F076 70                db      070h,000h    
     F077 00
8747 F078 71                db      071h,0afh    
     F079 FFFFFFAF
8748 F07A 72                db      072h,0e6h    
     F07B FFFFFFE6
8749 F07C 73                db      073h,0d7h    
     F07D FFFFFFD7
8750 F07E 74                db      074h,087h    
     F07F FFFFFF87
8751 F080 75                db      075h,000h    
     F081 00
8752 F082 76                db      076h,0b0h    
     F083 FFFFFFB0
8753 F084 77                db      077h,0fbh    
     F085 FFFFFFFB
8754 F086 78                db      078h,094h    
     F087 FFFFFF94
8755 F088 79                db      079h,0bfh    
     F089 FFFFFFBF
8756 F08A 7A                db      07ah,052h    
     F08B 52
8757 F08C 7B                db      07bh,001h    
     F08D 01
8758 F08E 7C                db      07ch,0b2h    
     F08F FFFFFFB2
8759 F090 7D                db      07dh,03fh    
     F091 3F
8760 F092 7E                db      07eh,0d1h    
     F093 FFFFFFD1
8761 F094 7F                db      07fh,04ah    
     F095 4A
8762 F096 00                db      000h,0a7h    
     F097 FFFFFFA7
8763 F098 08                db      008h,048h    
     F099 48
8764 F09A 09                db      009h,0bdh    
     F09B FFFFFFBD
8765 F09C 0A                db      00ah,04bh    
     F09D 4B
8766 F09E 0B                db      00bh,0fbh    
     F09F FFFFFFFB
8767 F0A0 0C                db      00ch,0fbh    
     F0A1 FFFFFFFB
8768 F0A2 0D                db      00dh,0b0h    
     F0A3 FFFFFFB0
8769 F0A4 0E                db      00eh,062h    
     F0A5 62
8770 F0A6 0F                db      00fh,01ah    
     F0A7 1A
8771 F0A8 10                db      010h,05ch    
     F0A9 5C
8772 F0AA 11                db      011h,0e8h    
     F0AB FFFFFFE8
8773 F0AC 12                db      012h,002h    
     F0AD 02
8774 F0AE 13                db      013h,000h    
     F0AF 00
8775 F0B0 14                db      014h,000h    
     F0B1 00
8776 F0B2 15                db      015h,002h    
     F0B3 02
8777 F0B4 16                db      016h,070h    
     F0B5 70
8778 F0B6 17                db      017h,000h    
     F0B7 00
8779 F0B8 18                db      018h,0dch    
     F0B9 FFFFFFDC
8780 F0BA 19                db      019h,0fbh    
     F0BB FFFFFFFB
8781 F0BC 1A                db      01ah,000h    
     F0BD 00
8782 F0BE 1B                db      01bh,0c4h    
     F0BF FFFFFFC4
8783 F0C0 1C                db      01ch,069h    
     F0C1 69
8784 F0C2 1D                db      01dh,001h    
     F0C3 01
8785 F0C4 1E                db      01eh,0b6h    
     F0C5 FFFFFFB6
8786 F0C6 1F                db      01fh,000h    
     F0C7 00
8787 F0C8 20                db      020h,000h    
     F0C9 00
8788 F0CA 21                db      021h,03bh    
     F0CB 3B
8789 F0CC 22                db      022h,0c2h    
     F0CD FFFFFFC2
8790 F0CE 23                db      023h,050h    
     F0CF 50
8791 F0D0 24                db      024h,002h    
     F0D1 02
8792 F0D2 25                db      025h,002h    
     F0D3 02
8793 F0D4 26                db      026h,0deh    
     F0D5 FFFFFFDE
8794 F0D6 27                db      027h,079h    
     F0D7 79
8795 F0D8 28                db      028h,001h    
     F0D9 01
8796 F0DA 29                db      029h,096h    
     F0DB FFFFFF96
8797 F0DC 2A                db      02ah,0eeh    
     F0DD FFFFFFEE
8798 F0DE 2B                db      02bh,07eh    
     F0DF 7E
8799 F0E0 2C                db      02ch,06ah    
     F0E1 6A
8800 F0E2 2D                db      02dh,019h    
     F0E3 19
8801 F0E4 2E                db      02eh,0ddh    
     F0E5 FFFFFFDD
8802 F0E6 2F                db      02fh,076h    
     F0E7 76
8803 F0E8 30                db      030h,000h    
     F0E9 00
8804 F0EA 31                db      031h,0fbh    
     F0EB FFFFFFFB
8805 F0EC 32                db      032h,0e4h    
     F0ED FFFFFFE4
8806 F0EE 33                db      033h,09dh    
     F0EF FFFFFF9D
8807 F0F0 34                db      034h,0cah    
     F0F1 FFFFFFCA
8808 F0F2 35                db      035h,0fbh    
     F0F3 FFFFFFFB
8809 F0F4 36                db      036h,001h    
     F0F5 01
8810 F0F6 37                db      037h,002h    
     F0F7 02
8811 F0F8 38                db      038h,0c2h    
     F0F9 FFFFFFC2
8812 F0FA 39                db      039h,0c7h    
     F0FB FFFFFFC7
8813 F0FC 3A                db      03ah,002h    
     F0FD 02
8814 F0FE 3B                db      03bh,00fh    
     F0FF 0F
8815 F100 3C                db      03ch,0a9h    
     F101 FFFFFFA9
8816 F102 3D                db      03dh,000h    
     F103 00
8817 F104 3E                db      03eh,0cfh    
     F105 FFFFFFCF
8818 F106 3F                db      03fh,00ch    
     F107 0C
8819 F108 40                db      040h,03fh    
     F109 3F
8820 F10A 41                db      041h,0cah    
     F10B FFFFFFCA
8821 F10C 42                db      042h,0e8h    
     F10D FFFFFFE8
8822 F10E 43                db      043h,077h    
     F10F 77
8823 F110 44                db      044h,0d4h    
     F111 FFFFFFD4
8824 F112 45                db      045h,060h    
     F113 60
8825 F114 46                db      046h,0e2h    
     F115 FFFFFFE2
8826 F116 47                db      047h,091h    
     F117 FFFFFF91
8827 F118 48                db      048h,0c1h    
     F119 FFFFFFC1
8828 F11A 49                db      049h,000h    
     F11B 00
8829 F11C 4A                db      04ah,067h    
     F11D 67
8830 F11E 4B                db      04bh,0e6h    
     F11F FFFFFFE6
8831 F120 4C                db      04ch,0d7h    
     F121 FFFFFFD7
8832 F122 4D                db      04dh,087h    
     F123 FFFFFF87
8833 F124 4E                db      04eh,000h    
     F125 00
8834 F126 4F                db      04fh,0d6h    
     F127 FFFFFFD6
8835 F128 50                db      050h,002h    
     F129 02
8836 F12A 51                db      051h,094h    
     F12B FFFFFF94
8837 F12C 52                db      052h,0bfh    
     F12D FFFFFFBF
8838 F12E 53                db      053h,052h    
     F12F 52
8839 F130 54                db      054h,001h    
     F131 01
8840 F132 55                db      055h,0b2h    
     F133 FFFFFFB2
8841 F134 56                db      056h,03fh    
     F135 3F
8842 F136 57                db      057h,0d1h    
     F137 FFFFFFD1
8843 F138 58                db      058h,04ah    
     F139 4A
8844 F13A 59                db      059h,0bah    
     F13B FFFFFFBA
8845 F13C 5A                db      05ah,047h    
     F13D 47
8846 F13E 5B                db      05bh,0eeh    
     F13F FFFFFFEE
8847 F140 5C                db      05ch,01ah    
     F141 1A
8848 F142 5D                db      05dh,0d8h    
     F143 FFFFFFD8
8849 F144 5E                db      05eh,067h    
     F145 67
8850 F146 5F                db      05fh,0e5h    
     F147 FFFFFFE5
8851 F148 60                db      060h,000h    
     F149 00
8852 F14A 61                db      061h,0bbh    
     F14B FFFFFFBB
8853 F14C 62                db      062h,005h    
     F14D 05
8854 F14E 63                db      063h,001h    
     F14F 01
8855 F150 64                db      064h,0e5h    
     F151 FFFFFFE5
8856 F152 65                db      065h,0fbh    
     F153 FFFFFFFB
8857 F154 66                db      066h,06bh    
     F155 6B
8858 F156 67                db      067h,000h    
     F157 00
8859 F158 68                db      068h,0ddh    
     F159 FFFFFFDD
8860 F15A 69                db      069h,052h    
     F15B 52
8861 F15C 6A                db      06ah,097h    
     F15D FFFFFF97
8862 F15E 6B                db      06bh,0afh    
     F15F FFFFFFAF
8863 F160 6C                db      06ch,0fbh    
     F161 FFFFFFFB
8864 F162 6D                db      06dh,000h    
     F163 00
8865 F164 6E                db      06eh,0b4h    
     F165 FFFFFFB4
8866 F166 6F                db      06fh,03fh    
     F167 3F
8867 F168 70                db      070h,002h    
     F169 02
8868 F16A 71                db      071h,041h    
     F16B 41
8869 F16C 72                db      072h,002h    
     F16D 02
8870 F16E 73                db      073h,003h    
     F16F 03
8871 F170 74                db      074h,0dbh    
     F171 FFFFFFDB
8872 F172 75                db      075h,068h    
     F173 68
8873 F174 76                db      076h,000h    
     F175 00
8874 F176 77                db      077h,092h    
     F177 FFFFFF92
8875 F178 78                db      078h,0ech    
     F179 FFFFFFEC
8876 F17A 79                db      079h,0fbh    
     F17B FFFFFFFB
8877 F17C 7A                db      07ah,00fh    
     F17D 0F
8878 F17E 7B                db      07bh,016h    
     F17F 16
8879 F180 7C                db      07ch,0d9h    
     F181 FFFFFFD9
8880 F182 7D                db      07dh,072h    
     F183 72
8881 F184 7E                db      07eh,002h    
     F185 02
8882 F186 7F                db      07fh,0e1h    
     F187 FFFFFFE1
8883 F188 00                db      000h,0a8h    
     F189 FFFFFFA8
8884 F18A 08                db      008h,000h    
     F18B 00
8885 F18C 09                db      009h,0d8h    
     F18D FFFFFFD8
8886 F18E 0A                db      00ah,03bh    
     F18F 3B
8887 F190 0B                db      00bh,0bfh    
     F191 FFFFFFBF
8888 F192 0C                db      00ch,050h    
     F193 50
8889 F194 0D                db      00dh,0fbh    
     F195 FFFFFFFB
8890 F196 0E                db      00eh,087h    
     F197 FFFFFF87
8891 F198 0F                db      00fh,0ddh    
     F199 FFFFFFDD
8892 F19A 10                db      010h,078h    
     F19B 78
8893 F19C 11                db      011h,001h    
     F19D 01
8894 F19E 12                db      012h,092h    
     F19F FFFFFF92
8895 F1A0 13                db      013h,0eeh    
     F1A1 FFFFFFEE
8896 F1A2 14                db      014h,000h    
     F1A3 00
8897 F1A4 15                db      015h,06ah    
     F1A5 6A
8898 F1A6 16                db      016h,018h    
     F1A7 18
8899 F1A8 17                db      017h,0ddh    
     F1A9 FFFFFFDD
8900 F1AA 18                db      018h,075h    
     F1AB 75
8901 F1AC 19                db      019h,000h    
     F1AD 00
8902 F1AE 1A                db      01ah,0dfh    
     F1AF FFFFFFDF
8903 F1B0 1B                db      01bh,016h    
     F1B1 16
8904 F1B2 1C                db      01ch,09dh    
     F1B3 FFFFFF9D
8905 F1B4 1D                db      01dh,0cah    
     F1B5 FFFFFFCA
8906 F1B6 1E                db      01eh,074h    
     F1B7 74
8907 F1B8 1F                db      01fh,001h    
     F1B9 01
8908 F1BA 20                db      020h,0b1h    
     F1BB FFFFFFB1
8909 F1BC 21                db      021h,0bch    
     F1BD FFFFFFBC
8910 F1BE 22                db      022h,0dah    
     F1BF FFFFFFDA
8911 F1C0 23                db      023h,086h    
     F1C1 FFFFFF86
8912 F1C2 24                db      024h,0afh    
     F1C3 FFFFFFAF
8913 F1C4 25                db      025h,021h    
     F1C5 21
8914 F1C6 26                db      026h,002h    
     F1C7 02
8915 F1C8 27                db      027h,002h    
     F1C9 02
8916 F1CA 28                db      028h,0e1h    
     F1CB FFFFFFE1
8917 F1CC 29                db      029h,07ah    
     F1CD 7A
8918 F1CE 2A                db      02ah,00fh    
     F1CF 0F
8919 F1D0 2B                db      02bh,099h    
     F1D1 FFFFFF99
8920 F1D2 2C                db      02ch,002h    
     F1D3 02
8921 F1D4 2D                db      02dh,083h    
     F1D5 FFFFFF83
8922 F1D6 2E                db      02eh,001h    
     F1D7 01
8923 F1D8 2F                db      02fh,06fh    
     F1D9 6F
8924 F1DA 30                db      030h,0dfh    
     F1DB FFFFFFDF
8925 F1DC 31                db      031h,074h    
     F1DD 74
8926 F1DE 32                db      032h,03fh    
     F1DF 3F
8927 F1E0 33                db      033h,0bbh    
     F1E1 FFFFFFBB
8928 F1E2 34                db      034h,019h    
     F1E3 19
8929 F1E4 35                db      035h,0a0h    
     F1E5 FFFFFFA0
8930 F1E6 36                db      036h,001h    
     F1E7 01
8931 F1E8 37                db      037h,0e9h    
     F1E9 FFFFFFE9
8932 F1EA 38                db      038h,000h    
     F1EB 00
8933 F1EC 39                db      039h,001h    
     F1ED 01
8934 F1EE 3A                db      03ah,0d6h    
     F1EF FFFFFFD6
8935 F1F0 3B                db      03bh,0e5h    
     F1F1 FFFFFFE5
8936 F1F2 3C                db      03ch,0a5h    
     F1F3 FFFFFFA5
8937 F1F4 3D                db      03dh,000h    
     F1F5 00
8938 F1F6 3E                db      03eh,0edh    
     F1F7 FFFFFFED
8939 F1F8 3F                db      03fh,074h    
     F1F9 74
8940 F1FA 40                db      040h,005h    
     F1FB 05
8941 F1FC 41                db      041h,0c2h    
     F1FD FFFFFFC2
8942 F1FE 42                db      042h,0e0h    
     F1FF FFFFFFE0
8943 F200 43                db      043h,000h    
     F201 00
8944 F202 44                db      044h,0c7h    
     F203 FFFFFFC7
8945 F204 45                db      045h,056h    
     F205 56
8946 F206 46                db      046h,0fbh    
     F207 FFFFFFFB
8947 F208 47                db      047h,083h    
     F209 FFFFFF83
8948 F20A 48                db      048h,002h    
     F20B 02
8949 F20C 49                db      049h,003h    
     F20D 03
8950 F20E 4A                db      04ah,000h    
     F20F 00
8951 F210 4B                db      04bh,09ah    
     F211 FFFFFF9A
8952 F212 4C                db      04ch,0cfh    
     F213 FFFFFFCF
8953 F214 4D                db      04dh,088h    
     F215 FFFFFF88
8954 F216 4E                db      04eh,00fh    
     F217 0F
8955 F218 4F                db      04fh,0d2h    
     F219 FFFFFFD2
8956 F21A 50                db      050h,0fbh    
     F21B FFFFFFFB
8957 F21C 51                db      051h,05bh    
     F21D 5B
8958 F21E 52                db      052h,0b6h    
     F21F FFFFFFB6
8959 F220 53                db      053h,0cdh    
     F221 FFFFFFCD
8960 F222 54                db      054h,002h    
     F223 02
8961 F224 55                db      055h,0a7h    
     F225 FFFFFFA7
8962 F226 56                db      056h,0b5h    
     F227 FFFFFFB5
8963 F228 57                db      057h,0f3h    
     F229 FFFFFFF3
8964 F22A 58                db      058h,06ah    
     F22B 6A
8965 F22C 59                db      059h,09ah    
     F22D FFFFFF9A
8966 F22E 5A                db      05ah,0c6h    
     F22F FFFFFFC6
8967 F230 5B                db      05bh,0fbh    
     F231 FFFFFFFB
8968 F232 5C                db      05ch,062h    
     F233 62
8969 F234 5D                db      05dh,000h    
     F235 00
8970 F236 5E                db      05eh,058h    
     F237 58
8971 F238 5F                db      05fh,0fbh    
     F239 FFFFFFFB
8972 F23A 60                db      060h,089h    
     F23B FFFFFF89
8973 F23C 61                db      061h,0b0h    
     F23D FFFFFFB0
8974 F23E 62                db      062h,002h    
     F23F 02
8975 F240 63                db      063h,021h    
     F241 21
8976 F242 64                db      064h,0e2h    
     F243 FFFFFFE2
8977 F244 65                db      065h,0d1h    
     F245 FFFFFFD1
8978 F246 66                db      066h,000h    
     F247 00
8979 F248 67                db      067h,002h    
     F249 02
8980 F24A 68                db      068h,0d5h    
     F24B FFFFFFD5
8981 F24C 69                db      069h,0ech    
     F24D FFFFFFEC
8982 F24E 6A                db      06ah,043h    
     F24F 43
8983 F250 6B                db      06bh,0b9h    
     F251 FFFFFFB9
8984 F252 6C                db      06ch,002h    
     F253 02
8985 F254 6D                db      06dh,000h    
     F255 00
8986 F256 6E                db      06eh,0aah    
     F257 FFFFFFAA
8987 F258 6F                db      06fh,002h    
     F259 02
8988 F25A 70                db      070h,000h    
     F25B 00
8989 F25C 71                db      071h,018h    
     F25D 18
8990 F25E 72                db      072h,058h    
     F25F 58
8991 F260 73                db      073h,0fbh    
     F261 FFFFFFFB
8992 F262 74                db      074h,016h    
     F263 16
8993 F264 75                db      075h,09dh    
     F265 FFFFFF9D
8994 F266 76                db      076h,0cbh    
     F267 FFFFFFCB
8995 F268 77                db      077h,0fbh    
     F269 FFFFFFFB
8996 F26A 78                db      078h,001h    
     F26B 01
8997 F26C 79                db      079h,002h    
     F26D 02
8998 F26E 7A                db      07ah,0bch    
     F26F FFFFFFBC
8999 F270 7B                db      07bh,0d9h    
     F271 FFFFFFD9
9000 F272 7C                db      07ch,0c1h    
     F273 FFFFFFC1
9001 F274 7D                db      07dh,0c6h    
     F275 FFFFFFC6
9002 F276 7E                db      07eh,054h    
     F277 54
9003 F278 7F                db      07fh,002h    
     F279 02
9004 F27A 00                db      000h,0a9h    
     F27B FFFFFFA9
9005 F27C 08                db      008h,0c8h    
     F27D FFFFFFC8
9006 F27E 09                db      009h,056h    
     F27F 56
9007 F280 0A                db      00ah,0fbh    
     F281 FFFFFFFB
9008 F282 0B                db      00bh,006h    
     F283 06
9009 F284 0C                db      00ch,0fbh    
     F285 FFFFFFFB
9010 F286 0D                db      00dh,003h    
     F287 03
9011 F288 0E                db      00eh,01eh    
     F289 1E
9012 F28A 0F                db      00fh,09ch    
     F28B FFFFFF9C
9013 F28C 00                db      000h,02ch    
     F28D 2C
9014 F28E 01                db      001h,000h    
     F28F 00
9015 F290 01                db      001h,004h    
     F291 04
9016 F292 00                db      000h,000h    
     F293 00
9017 F294 03                db      003h,000h    
     F295 00
9018 F296 04                db      004h,001h    
     F297 01
9019 F298 05                db      005h,011h    
     F299 11
9020 F29A 06                db      006h,000h    
     F29B 00
9021 F29C 07                db      007h,000h    
     F29D 00
9022 F29E 08                db      008h,020h    
     F29F 20
9023 F2A0 09                db      009h,000h    
     F2A1 00
9024 F2A2 0A                db      00ah,000h    
     F2A3 00
9025 F2A4 0B                db      00bh,001h    
     F2A5 01
9026 F2A6 0C                db      00ch,07ch    
     F2A7 7C
9027 F2A8 0D                db      00dh,000h    
     F2A9 00
9028 F2AA 0E                db      00eh,000h    
     F2AB 00
9029 F2AC 0F                db      00fh,000h    
     F2AD 00
9030 F2AE 10                db      010h,000h    
     F2AF 00
9031 F2B0 11                db      011h,000h    
     F2B1 00
9032 F2B2 12                db      012h,000h    
     F2B3 00
9033 F2B4 13                db      013h,010h    
     F2B5 10
9034 F2B6 14                db      014h,000h    
     F2B7 00
9035 F2B8 15                db      015h,000h    
     F2B9 00
9036 F2BA 16                db      016h,000h    
     F2BB 00
9037 F2BC 17                db      017h,000h    
     F2BD 00
9038 F2BE 18                db      018h,000h    
     F2BF 00
9039 F2C0 19                db      019h,000h    
     F2C1 00
9040 F2C2 1A                db      01ah,080h    
     F2C3 FFFFFF80
9041 F2C4 1B                db      01bh,000h    
     F2C5 00
9042 F2C6 1C                db      01ch,000h    
     F2C7 00
9043 F2C8 1D                db      01dh,000h    
     F2C9 00
9044 F2CA 1E                db      01eh,000h    
     F2CB 00
9045 F2CC 1F                db      01fh,004h    
     F2CD 04
9046 F2CE 20                db      020h,000h    
     F2CF 00
9047 F2D0 21                db      021h,000h    
     F2D1 00
9048 F2D2 22                db      022h,000h    
     F2D3 00
9049 F2D4 23                db      023h,001h    
     F2D5 01
9050 F2D6 24                db      024h,000h    
     F2D7 00
9051 F2D8 25                db      025h,000h    
     F2D9 00
9052 F2DA 26                db      026h,0f3h    
     F2DB FFFFFFF3
9053 F2DC 27                db      027h,004h    
     F2DD 04
9054 F2DE 28                db      028h,002h    
     F2DF 02
9055 F2E0 29                db      029h,000h    
     F2E1 00
9056 F2E2 2A                db      02ah,011h    
     F2E3 11
9057 F2E4 2B                db      02bh,001h    
     F2E5 01
9058 F2E6 2C                db      02ch,000h    
     F2E7 00
9059 F2E8 2D                db      02dh,000h    
     F2E9 00
9060 F2EA 2E                db      02eh,000h    
     F2EB 00
9061 F2EC 2F                db      02fh,000h    
     F2ED 00
9062 F2EE 30                db      030h,000h    
     F2EF 00
9063 F2F0 31                db      031h,000h    
     F2F1 00
9064 F2F2 32                db      032h,000h    
     F2F3 00
9065 F2F4 33                db      033h,000h    
     F2F5 00
9066 F2F6 34                db      034h,000h    
     F2F7 00
9067 F2F8 35                db      035h,000h    
     F2F9 00
9068 F2FA 36                db      036h,000h    
     F2FB 00
9069 F2FC 37                db      037h,000h    
     F2FD 00
9070 F2FE 38                db      038h,000h    
     F2FF 00
9071 F300 39                db      039h,000h    
     F301 00
9072 F302 3A                db      03ah,000h    
     F303 00
9073 F304 3B                db      03bh,000h    
     F305 00
9074 F306 3C                db      03ch,000h    
     F307 00
9075 F308 3D                db      03dh,020h    
     F309 20
9076 F30A 3E                db      03eh,020h    
     F30B 20
9077 F30C 3F                db      03fh,022h    
     F30D 22
9078 F30E 40                db      040h,002h    
     F30F 02
9079 F310 41                db      041h,007h    
     F311 07
9080 F312 42                db      042h,014h    
     F313 14
9081 F314 43                db      043h,005h    
     F315 05
9082 F316 44                db      044h,000h    
     F317 00
9083 F318 45                db      045h,000h    
     F319 00
9084 F31A 46                db      046h,000h    
     F31B 00
9085 F31C 47                db      047h,000h    
     F31D 00
9086 F31E 48                db      048h,055h    
     F31F 55
9087 F320 49                db      049h,000h    
     F321 00
9088 F322 4A                db      04ah,000h    
     F323 00
9089 F324 4B                db      04bh,000h    
     F325 00
9090 F326 4C                db      04ch,000h    
     F327 00
9091 F328 4D                db      04dh,000h    
     F329 00
9092 F32A 4E                db      04eh,000h    
     F32B 00
9093 F32C 4F                db      04fh,000h    
     F32D 00
9094 F32E 50                db      050h,000h    
     F32F 00
9095 F330 51                db      051h,000h    
     F331 00
9096 F332 52                db      052h,000h    
     F333 00
9097 F334 53                db      053h,000h    
     F335 00
9098 F336 54                db      054h,000h    
     F337 00
9099 F338 55                db      055h,007h    
     F339 07
9100 F33A 56                db      056h,000h    
     F33B 00
9101 F33C 57                db      057h,000h    
     F33D 00
9102 F33E 58                db      058h,081h    
     F33F FFFFFF81
9103 F340 59                db      059h,011h    
     F341 11
9104 F342 5A                db      05ah,000h    
     F343 00
9105 F344 5B                db      05bh,036h    
     F345 36
9106 F346 5C                db      05ch,000h    
     F347 00
9107 F348 5D                db      05dh,040h    
     F349 40
9108 F34A 5E                db      05eh,000h    
     F34B 00
9109 F34C 5F                db      05fh,000h    
     F34D 00
9110 F34E 60                db      060h,001h    
     F34F 01
9111 F350 61                db      061h,010h    
     F351 10
9112 F352 62                db      062h,000h    
     F353 00
9113 F354 63                db      063h,000h    
     F355 00
9114 F356 64                db      064h,000h    
     F357 00
9115 F358 65                db      065h,001h    
     F359 01
9116 F35A 66                db      066h,00fh    
     F35B 0F
9117 F35C 67                db      067h,003h    
     F35D 03
9118 F35E 68                db      068h,007h    
     F35F 07
9119 F360 69                db      069h,010h    
     F361 10
9120 F362 6A                db      06ah,0ffh    
     F363 FFFFFFFF
9121 F364 6B                db      06bh,0d3h    
     F365 FFFFFFD3
9122 F366 6C                db      06ch,033h    
     F367 33
9123 F368 6D                db      06dh,000h    
     F369 00
9124 F36A 6E                db      06eh,003h    
     F36B 03
9125 F36C 6F                db      06fh,000h    
     F36D 00
9126 F36E 70                db      070h,003h    
     F36F 03
9127 F370 71                db      071h,001h    
     F371 01
9128 F372 72                db      072h,003h    
     F373 03
9129 F374 73                db      073h,000h    
     F375 00
9130 F376 74                db      074h,004h    
     F377 04
9131 F378 75                db      075h,000h    
     F379 00
9132 F37A 76                db      076h,085h    
     F37B FFFFFF85
9133 F37C 77                db      077h,001h    
     F37D 01
9134 F37E 78                db      078h,000h    
     F37F 00
9135 F380 79                db      079h,000h    
     F381 00
9136 F382 7A                db      07ah,000h    
     F383 00
9137 F384 7B                db      07bh,000h    
     F385 00
9138 F386 7C                db      07ch,000h    
     F387 00
9139 F388 7D                db      07dh,000h    
     F389 00
9140 F38A 7E                db      07eh,000h    
     F38B 00
9141 F38C 7F                db      07fh,000h    
     F38D 00
9142 F38E 00                db      000h,001h    
     F38F 01
9143 F390 01                db      001h,000h    
     F391 00
9144 F392 02                db      002h,000h    
     F393 00
9145 F394 03                db      003h,000h    
     F395 00
9146 F396 04                db      004h,003h    
     F397 03
9147 F398 05                db      005h,000h    
     F399 00
9148 F39A 06                db      006h,000h    
     F39B 00
9149 F39C 07                db      007h,000h    
     F39D 00
9150 F39E 08                db      008h,010h    
     F39F 10
9151 F3A0 09                db      009h,001h    
     F3A1 01
9152 F3A2 0A                db      00ah,033h    
     F3A3 33
9153 F3A4 0B                db      00bh,011h    
     F3A5 11
9154 F3A6 0C                db      00ch,011h    
     F3A7 11
9155 F3A8 0D                db      00dh,011h    
     F3A9 11
9156 F3AA 0E                db      00eh,000h    
     F3AB 00
9157 F3AC 0F                db      00fh,001h    
     F3AD 01
9158 F3AE 10                db      010h,000h    
     F3AF 00
9159 F3B0 11                db      011h,000h    
     F3B1 00
9160 F3B2 12                db      012h,000h    
     F3B3 00
9161 F3B4 13                db      013h,000h    
     F3B5 00
9162 F3B6 14                db      014h,000h    
     F3B7 00
9163 F3B8 15                db      015h,000h    
     F3B9 00
9164 F3BA 16                db      016h,000h    
     F3BB 00
9165 F3BC 17                db      017h,000h    
     F3BD 00
9166 F3BE 18                db      018h,000h    
     F3BF 00
9167 F3C0 19                db      019h,000h    
     F3C1 00
9168 F3C2 1A                db      01ah,000h    
     F3C3 00
9169 F3C4 1B                db      01bh,000h    
     F3C5 00
9170 F3C6 1C                db      01ch,000h    
     F3C7 00
9171 F3C8 1D                db      01dh,000h    
     F3C9 00
9172 F3CA 1E                db      01eh,000h    
     F3CB 00
9173 F3CC 1F                db      01fh,000h    
     F3CD 00
9174 F3CE 20                db      020h,000h    
     F3CF 00
9175 F3D0 21                db      021h,000h    
     F3D1 00
9176 F3D2 22                db      022h,000h    
     F3D3 00
9177 F3D4 23                db      023h,000h    
     F3D5 00
9178 F3D6 24                db      024h,000h    
     F3D7 00
9179 F3D8 25                db      025h,000h    
     F3D9 00
9180 F3DA 26                db      026h,000h    
     F3DB 00
9181 F3DC 27                db      027h,000h    
     F3DD 00
9182 F3DE 28                db      028h,000h    
     F3DF 00
9183 F3E0 29                db      029h,000h    
     F3E1 00
9184 F3E2 2A                db      02ah,000h    
     F3E3 00
9185 F3E4 2B                db      02bh,000h    
     F3E5 00
9186 F3E6 2C                db      02ch,000h    
     F3E7 00
9187 F3E8 2D                db      02dh,000h    
     F3E9 00
9188 F3EA 2E                db      02eh,000h    
     F3EB 00
9189 F3EC 2F                db      02fh,000h    
     F3ED 00
9190 F3EE 30                db      030h,000h    
     F3EF 00
9191 F3F0 31                db      031h,000h    
     F3F1 00
9192 F3F2 32                db      032h,000h    
     F3F3 00
9193 F3F4 33                db      033h,000h    
     F3F5 00
9194 F3F6 34                db      034h,000h    
     F3F7 00
9195 F3F8 35                db      035h,000h    
     F3F9 00
9196 F3FA 36                db      036h,000h    
     F3FB 00
9197 F3FC 37                db      037h,000h    
     F3FD 00
9198 F3FE 38                db      038h,000h    
     F3FF 00
9199 F400 39                db      039h,000h    
     F401 00
9200 F402 3A                db      03ah,000h    
     F403 00
9201 F404 3B                db      03bh,000h    
     F405 00
9202 F406 3C                db      03ch,000h    
     F407 00
9203 F408 3D                db      03dh,000h    
     F409 00
9204 F40A 3E                db      03eh,000h    
     F40B 00
9205 F40C 3F                db      03fh,000h    
     F40D 00
9206 F40E 40                db      040h,000h    
     F40F 00
9207 F410 41                db      041h,000h    
     F411 00
9208 F412 42                db      042h,000h    
     F413 00
9209 F414 43                db      043h,000h    
     F415 00
9210 F416 44                db      044h,000h    
     F417 00
9211 F418 45                db      045h,000h    
     F419 00
9212 F41A 46                db      046h,000h    
     F41B 00
9213 F41C 47                db      047h,000h    
     F41D 00
9214 F41E 48                db      048h,000h    
     F41F 00
9215 F420 49                db      049h,000h    
     F421 00
9216 F422 4A                db      04ah,000h    
     F423 00
9217 F424 4B                db      04bh,000h    
     F425 00
9218 F426 4C                db      04ch,000h    
     F427 00
9219 F428 4D                db      04dh,000h    
     F429 00
9220 F42A 4E                db      04eh,000h    
     F42B 00
9221 F42C 4F                db      04fh,000h    
     F42D 00
9222 F42E 50                db      050h,000h    
     F42F 00
9223 F430 51                db      051h,000h    
     F431 00
9224 F432 52                db      052h,000h    
     F433 00
9225 F434 53                db      053h,000h    
     F435 00
9226 F436 54                db      054h,000h    
     F437 00
9227 F438 55                db      055h,000h    
     F439 00
9228 F43A 56                db      056h,000h    
     F43B 00
9229 F43C 57                db      057h,000h    
     F43D 00
9230 F43E 58                db      058h,000h    
     F43F 00
9231 F440 59                db      059h,000h    
     F441 00
9232 F442 5A                db      05ah,000h    
     F443 00
9233 F444 5B                db      05bh,000h    
     F445 00
9234 F446 5C                db      05ch,000h    
     F447 00
9235 F448 5D                db      05dh,000h    
     F449 00
9236 F44A 5E                db      05eh,000h    
     F44B 00
9237 F44C 5F                db      05fh,000h    
     F44D 00
9238 F44E 60                db      060h,000h    
     F44F 00
9239 F450 61                db      061h,000h    
     F451 00
9240 F452 62                db      062h,000h    
     F453 00
9241 F454 63                db      063h,000h    
     F455 00
9242 F456 64                db      064h,000h    
     F457 00
9243 F458 65                db      065h,000h    
     F459 00
9244 F45A 66                db      066h,000h    
     F45B 00
9245 F45C 67                db      067h,000h    
     F45D 00
9246 F45E 68                db      068h,000h    
     F45F 00
9247 F460 69                db      069h,000h    
     F461 00
9248 F462 6A                db      06ah,000h    
     F463 00
9249 F464 6B                db      06bh,000h    
     F465 00
9250 F466 6C                db      06ch,000h    
     F467 00
9251 F468 6D                db      06dh,000h    
     F469 00
9252 F46A 6E                db      06eh,000h    
     F46B 00
9253 F46C 6F                db      06fh,000h    
     F46D 00
9254 F46E 70                db      070h,000h    
     F46F 00
9255 F470 71                db      071h,000h    
     F471 00
9256 F472 72                db      072h,000h    
     F473 00
9257 F474 73                db      073h,000h    
     F475 00
9258 F476 74                db      074h,000h    
     F477 00
9259 F478 75                db      075h,000h    
     F479 00
9260 F47A 76                db      076h,000h    
     F47B 00
9261 F47C 77                db      077h,000h    
     F47D 00
9262 F47E 78                db      078h,000h    
     F47F 00
9263 F480 79                db      079h,000h    
     F481 00
9264 F482 7A                db      07ah,000h    
     F483 00
9265 F484 7B                db      07bh,000h    
     F485 00
9266 F486 7C                db      07ch,000h    
     F487 00
9267 F488 7D                db      07dh,000h    
     F489 00
9268 F48A 7E                db      07eh,000h    
     F48B 00
9269 F48C 7F                db      07fh,000h    
     F48D 00
9270 F48E 00                db      000h,000h    
     F48F 00
9271 F490 02                db      002h,000h    
     F491 00
9272 F492 03                db      003h,000h    
     F493 00
9273 F494 07                db      007h,000h    
     F495 00
9274 F496 08                db      008h,020h    
     F497 20
9275 F498 55                db      055h,007h    
     F499 07
9276               T_InitialTAS5713EndTable:     
9277 F49A 00                db      000H         
9278               ;
9279               ;
9280               ;;
9281               ;;
9282               
9283               ;;==================================================================================================
9284               ;;
9285               ;;	Interrupt	Vector Table
9286               ;;
9287               ;;==================================================================================================
9288               No_Interrupt:                 
9289 F49B 7F                reti                 
9290               
9291                        ORG     0FFE0H       
9292               
9293 FFE0 9BF4              dw      No_Interrupt   ;00	*WT/WTD	Int				FFE0
9294 FFE2 9BF4              dw      No_Interrupt   ;01	BIT	Int						FFE2
9295 FFE4 9AC0              dw      F_Timer3_INT   ;02	ADC/I2C	Int				FFE4
9296 FFE6 BCC0              dw      F_Timer2_INT   ;03	Timer3	Int				FFE6
9297 FFE8 9BF4              dw      No_Interrupt   ;04	Timer2	Int				FFE8
9298 FFEA 83C0              dw      F_Timer0_INT   ;05	Timer1	Int				FFEA
9299 FFEC 9BF4              dw      No_Interrupt   ;06	Timer0	Int				FFEC
9300 FFEE 9BF4              dw      No_Interrupt   ;07	*SPI		Int				FFEE
9301 FFF0 9BF4              dw      No_Interrupt   ;08	*Not Used					FFF0
9302 FFF2 9BF4              dw      No_Interrupt   ;09	Uart0_Tx_Rx	Int		FFF2
9303 FFF4 9BF4              dw      No_Interrupt   ;10	*External	Int	3		FFF4
9304 FFF6 9BF4              dw      No_Interrupt   ;11	*External	Int	2		FFF6
9305 FFF8 9BF4              dw      No_Interrupt   ;12	*External	Int	1		FFF8
9306 FFFA 9BF4              dw      No_Interrupt   ;13	*External	Int	0		FFFA
9307 FFFC 9BF4              dw      No_Interrupt   ;14	*Not Used					FFFC
9308 FFFE 00C0              dw      Program_start   ;15	*Reset (NMI)			FFFE
9309               
9310               ;;==================================================================================================
9311               ;;	end	of Main.asm
9312               ;
9313               ;
9314               ;;
9315               ;;


        -- 0 Error(s) --

   --- Total Machine Code : 13500 Bytes --
